(dp0
S'56'
p1
(lp2
I11573
aI146
asS'54'
p3
(lp4
I11134
aI290
asS'42'
p5
(lp6
I8905
aI189
asS'48'
p7
(lp8
I10140
aI285
asS'43'
p9
(lp10
I9094
aI212
asS'60'
p11
(lp12
I12677
aI325
asS'61'
p13
(lp14
I13002
aI258
asS'62'
p15
(lp16
I13260
aI138
asS'63'
p17
(lp18
I13398
aI143
asS'64'
p19
(lp20
I13541
aI144
asS'49'
p21
(lp22
I10425
aI120
asS'52'
p23
(lp24
I10728
aI84
asS'53'
p25
(lp26
I10812
aI322
asS'24'
p27
(lp28
I3968
aI87
asS'25'
p29
(lp30
I4055
aI104
asS'26'
p31
(lp32
I4159
aI110
asS'27'
p33
(lp34
I4269
aI102
asS'20'
p35
(lp36
I3323
aI126
asS'21'
p37
(lp38
I3449
aI186
asS'22'
p39
(lp40
I3635
aI225
asS'23'
p41
(lp42
I3860
aI108
asS'46'
p43
(lp44
I9709
aI198
asS'47'
p45
(lp46
I9907
aI233
asS'44'
p47
(lp48
I9306
aI136
asS'45'
p49
(lp50
I9442
aI267
asS'28'
p51
(lp52
I4371
aI263
asS'29'
p53
(lp54
I4634
aI165
asS'40'
p55
(lp56
I8091
aI328
asS'41'
p57
(lp58
I8419
aI486
asS'1'
p59
(lp60
I0
aI169
asS'3'
p61
(lp62
I347
aI150
asS'2'
p63
(lp64
I169
aI178
asS'5'
p65
(lp66
I918
aI294
asS'4'
p67
(lp68
I497
aI421
asS'7'
p69
(lp70
I1415
aI311
asS'6'
p71
(lp72
I1212
aI203
asS'9'
p73
(lp74
I1871
aI149
asS'8'
p75
(lp76
I1726
aI145
asS'51'
p77
(lp78
I10655
aI73
asS'39'
p79
(lp80
I7811
aI280
asS'38'
p81
(lp82
I7529
aI282
asS'59'
p83
(lp84
I12422
aI255
asS'58'
p85
(lp86
I12122
aI300
asS'11'
p87
(lp88
I2147
aI96
asS'10'
p89
(lp90
I2020
aI127
asS'13'
p91
(lp92
I2322
aI94
asS'12'
p93
(lp94
I2243
aI79
asS'15'
p95
(lp96
I2596
aI192
asS'14'
p97
(lp98
I2416
aI180
asS'17'
p99
(lp100
I2960
aI108
asS'16'
p101
(lp102
I2788
aI172
asS'19'
p103
(lp104
I3243
aI80
asS'18'
p105
(lp106
I3068
aI175
asS'31'
p107
(lp108
I4971
aI480
asS'30'
p109
(lp110
I4799
aI172
asS'37'
p111
(lp112
I7092
aI437
asS'36'
p113
(lp114
I6959
aI133
asS'35'
p115
(lp116
I6677
aI282
asS'34'
p117
(lp118
I6426
aI251
asS'33'
p119
(lp120
I5805
aI621
asS'55'
p121
(lp122
I11424
aI149
asS'32'
p123
(lp124
I5451
aI354
asS'57'
p125
(lp126
I11719
aI403
asS'50'
p127
(lp128
I10545
aI110
as.