(dp0
S'593'
p1
(lp2
I21068305
aI86
asS'2031'
p3
(lp4
I18819721
aI623
asS'4026'
p5
(lp6
I16645
aI45930
asS'1869'
p7
(lp8
I18559899
aI688
asS'4024'
p9
(lp10
I87005
aI42702
asS'4025'
p11
(lp12
I129707
aI9092
asS'4022'
p13
(lp14
I138799
aI9160
asS'4023'
p15
(lp16
I147959
aI17740
asS'4020'
p17
(lp18
I165699
aI2491
asS'4021'
p19
(lp20
I11047111
aI34991
asS'643'
p21
(lp22
I21384400
aI145
asS'4028'
p23
(lp24
I260955
aI1883
asS'4029'
p25
(lp26
I262838
aI39415
asS'592'
p27
(lp28
I21068391
aI54
asS'344'
p29
(lp30
I302253
aI73
asS'345'
p31
(lp32
I302326
aI102
asS'346'
p33
(lp34
I302428
aI101
asS'347'
p35
(lp36
I302529
aI88
asS'340'
p37
(lp38
I302617
aI65
asS'341'
p39
(lp40
I302682
aI68
asS'342'
p41
(lp42
I302750
aI101
asS'343'
p43
(lp44
I302851
aI108
asS'3997'
p45
(lp46
I12921284
aI43288
asS'3996'
p47
(lp48
I303674
aI39655
asS'3995'
p49
(lp50
I343329
aI11800
asS'3994'
p51
(lp52
I355129
aI32035
asS'348'
p53
(lp54
I387164
aI84
asS'349'
p55
(lp56
I387248
aI57
asS'3991'
p57
(lp58
I387305
aI41283
asS'3990'
p59
(lp60
I428588
aI4115
asS'457'
p61
(lp62
I23555008
aI96
asS'1296'
p63
(lp64
I27623434
aI63
asS'594'
p65
(lp66
I21068956
aI93
asS'2318'
p67
(lp68
I505833
aI355
asS'2319'
p69
(lp70
I506188
aI803
asS'2316'
p71
(lp72
I506991
aI603
asS'2317'
p73
(lp74
I507594
aI900
asS'2314'
p75
(lp76
I508494
aI1327
asS'2315'
p77
(lp78
I509821
aI285
asS'2312'
p79
(lp80
I510106
aI187
asS'2313'
p81
(lp82
I510293
aI771
asS'2310'
p83
(lp84
I511064
aI669
asS'2311'
p85
(lp86
I511733
aI408
asS'2184'
p87
(lp88
I10080117
aI789
asS'298'
p89
(lp90
I512141
aI542
asS'299'
p91
(lp92
I512683
aI80
asS'296'
p93
(lp94
I512763
aI91
asS'297'
p95
(lp96
I512854
aI85
asS'294'
p97
(lp98
I512939
aI58
asS'295'
p99
(lp100
I512997
aI88
asS'292'
p101
(lp102
I513085
aI158
asS'293'
p103
(lp104
I513243
aI111
asS'290'
p105
(lp106
I513354
aI62
asS'291'
p107
(lp108
I513416
aI84
asS'3773'
p109
(lp110
I513500
aI944
asS'3772'
p111
(lp112
I514444
aI26064
asS'3771'
p113
(lp114
I540508
aI24132
asS'3770'
p115
(lp116
I564640
aI21711
asS'3777'
p117
(lp118
I586351
aI46206
asS'3776'
p119
(lp120
I632557
aI45623
asS'3775'
p121
(lp122
I678180
aI26222
asS'3774'
p123
(lp124
I704402
aI23426
asS'3779'
p125
(lp126
I728534
aI21970
asS'3778'
p127
(lp128
I750504
aI33772
asS'270'
p129
(lp130
I784276
aI79
asS'271'
p131
(lp132
I784355
aI126
asS'272'
p133
(lp134
I784481
aI460
asS'273'
p135
(lp136
I784941
aI78
asS'274'
p137
(lp138
I785019
aI128
asS'275'
p139
(lp140
I785147
aI90
asS'276'
p141
(lp142
I785237
aI394
asS'277'
p143
(lp144
I785631
aI104
asS'278'
p145
(lp146
I785735
aI904
asS'279'
p147
(lp148
I786639
aI71
asS'1992'
p149
(lp150
I23807661
aI230
asS'738'
p151
(lp152
I25891340
aI71
asS'581'
p153
(lp154
I23505335
aI63
asS'2268'
p155
(lp156
I824593
aI728
asS'2269'
p157
(lp158
I825321
aI177
asS'2262'
p159
(lp160
I825498
aI486
asS'2263'
p161
(lp162
I825984
aI1011
asS'2260'
p163
(lp164
I826995
aI161
asS'2261'
p165
(lp166
I827156
aI587
asS'2266'
p167
(lp168
I827743
aI543
asS'2267'
p169
(lp170
I828286
aI419
asS'2264'
p171
(lp172
I828705
aI679
asS'2265'
p173
(lp174
I829384
aI1021
asS'2442'
p175
(lp176
I830405
aI88
asS'2443'
p177
(lp178
I830493
aI89
asS'2440'
p179
(lp180
I830582
aI110
asS'2441'
p181
(lp182
I830692
aI85
asS'2446'
p183
(lp184
I4017891
aI273
asS'2447'
p185
(lp186
I831329
aI314
asS'2444'
p187
(lp188
I831643
aI236
asS'2445'
p189
(lp190
I831879
aI164
asS'2448'
p191
(lp192
I832043
aI107
asS'2449'
p193
(lp194
I832150
aI469
asS'108'
p195
(lp196
I833583
aI101
asS'109'
p197
(lp198
I833684
aI46
asS'102'
p199
(lp200
I833730
aI114
asS'103'
p201
(lp202
I833844
aI648
asS'100'
p203
(lp204
I834492
aI93
asS'101'
p205
(lp206
I834585
aI67
asS'106'
p207
(lp208
I834652
aI657
asS'107'
p209
(lp210
I835309
aI78
asS'104'
p211
(lp212
I835387
aI707
asS'105'
p213
(lp214
I836094
aI102
asS'2046'
p215
(lp216
I836196
aI1138
asS'2047'
p217
(lp218
I837334
aI608
asS'2044'
p219
(lp220
I837942
aI113
asS'2045'
p221
(lp222
I838055
aI124
asS'2042'
p223
(lp224
I838179
aI334
asS'2043'
p225
(lp226
I838513
aI201
asS'2040'
p227
(lp228
I838714
aI201
asS'2041'
p229
(lp230
I838915
aI153
asS'2188'
p231
(lp232
I10405792
aI1025
asS'1297'
p233
(lp234
I27623497
aI61
asS'2048'
p235
(lp236
I839398
aI600
asS'2049'
p237
(lp238
I839998
aI350
asS'2839'
p239
(lp240
I23509705
aI411
asS'2838'
p241
(lp242
I23510116
aI783
asS'45'
p243
(lp244
I27619519
aI80
asS'3393'
p245
(lp246
I25930426
aI32493
asS'2835'
p247
(lp248
I23511652
aI456
asS'3519'
p249
(lp250
I877583
aI8522
asS'3518'
p251
(lp252
I23112648
aI35360
asS'3513'
p253
(lp254
I886620
aI21023
asS'3512'
p255
(lp256
I907643
aI50608
asS'3511'
p257
(lp258
I958251
aI49792
asS'3510'
p259
(lp260
I6288148
aI26771
asS'3517'
p261
(lp262
I6314919
aI1561
asS'3516'
p263
(lp264
I6316480
aI26316
asS'3515'
p265
(lp266
I1056304
aI49623
asS'3514'
p267
(lp268
I6342796
aI44828
asS'1420'
p269
(lp270
I25769751
aI437
asS'2688'
p271
(lp272
I1105997
aI772
asS'2689'
p273
(lp274
I1106769
aI161
asS'2684'
p275
(lp276
I1106930
aI861
asS'2685'
p277
(lp278
I1107791
aI324
asS'2686'
p279
(lp280
I1108115
aI544
asS'2687'
p281
(lp282
I1108659
aI784
asS'2680'
p283
(lp284
I1109443
aI691
asS'2681'
p285
(lp286
I6499006
aI636
asS'2682'
p287
(lp288
I1110445
aI812
asS'2683'
p289
(lp290
I1111257
aI749
asS'1436'
p291
(lp292
I23514290
aI89
asS'122'
p293
(lp294
I24824715
aI98
asS'3999'
p295
(lp296
I1124065
aI33290
asS'1437'
p297
(lp298
I23514379
aI98
asS'645'
p299
(lp300
I21384599
aI71
asS'3998'
p301
(lp302
I1183367
aI23105
asS'3389'
p303
(lp304
I21302304
aI4574
asS'99'
p305
(lp306
I1206580
aI76
asS'98'
p307
(lp308
I1206656
aI121
asS'3392'
p309
(lp310
I25965069
aI13913
asS'91'
p311
(lp312
I1206855
aI75
asS'90'
p313
(lp314
I1206930
aI122
asS'93'
p315
(lp316
I1207052
aI207
asS'92'
p317
(lp318
I1207259
aI472
asS'95'
p319
(lp320
I1207731
aI566
asS'94'
p321
(lp322
I1208297
aI186
asS'97'
p323
(lp324
I1208483
aI168
asS'96'
p325
(lp326
I1208651
aI536
asS'1623'
p327
(lp328
I1209187
aI645
asS'1622'
p329
(lp330
I1209832
aI414
asS'1621'
p331
(lp332
I1210246
aI510
asS'1620'
p333
(lp334
I1210756
aI475
asS'3203'
p335
(lp336
I2230580
aI617
asS'3202'
p337
(lp338
I4154036
aI628
asS'1625'
p339
(lp340
I1212504
aI580
asS'1624'
p341
(lp342
I1213084
aI173
asS'1999'
p343
(lp344
I1213257
aI387
asS'1998'
p345
(lp346
I1213644
aI370
asS'1629'
p347
(lp348
I1214014
aI417
asS'1628'
p349
(lp350
I6879604
aI383
asS'3209'
p351
(lp352
I1214510
aI26239
asS'3208'
p353
(lp354
I1240749
aI4030
asS'1293'
p355
(lp356
I27622164
aI148
asS'2860'
p357
(lp358
I1245433
aI901
asS'2861'
p359
(lp360
I1246334
aI109
asS'2862'
p361
(lp362
I1246443
aI748
asS'2863'
p363
(lp364
I1247191
aI629
asS'559'
p365
(lp366
I1247820
aI99
asS'2865'
p367
(lp368
I7416537
aI762
asS'2866'
p369
(lp370
I1248447
aI563
asS'2867'
p371
(lp372
I1249010
aI516
asS'2868'
p373
(lp374
I7417461
aI641
asS'2869'
p375
(lp376
I7418508
aI446
asS'557'
p377
(lp378
I1249671
aI39
asS'556'
p379
(lp380
I1249710
aI105
asS'551'
p381
(lp382
I1249815
aI119
asS'550'
p383
(lp384
I1249934
aI115
asS'553'
p385
(lp386
I1250049
aI105
asS'552'
p387
(lp388
I1250154
aI64
asS'4010'
p389
(lp390
I26225996
aI41931
asS'1199'
p391
(lp392
I1272210
aI571
asS'1198'
p393
(lp394
I1272781
aI224
asS'3348'
p395
(lp396
I1273005
aI1085
asS'3349'
p397
(lp398
I1274090
aI8988
asS'1191'
p399
(lp400
I1283078
aI77
asS'1190'
p401
(lp402
I1283155
aI103
asS'1193'
p403
(lp404
I1283258
aI68
asS'1192'
p405
(lp406
I1283326
aI69
asS'1195'
p407
(lp408
I1283395
aI661
asS'1194'
p409
(lp410
I1284056
aI1029
asS'1197'
p411
(lp412
I1285085
aI702
asS'1196'
p413
(lp414
I1285787
aI575
asS'1759'
p415
(lp416
I1286362
aI119
asS'1758'
p417
(lp418
I1286481
aI165
asS'1757'
p419
(lp420
I1286646
aI277
asS'1756'
p421
(lp422
I1286923
aI214
asS'1755'
p423
(lp424
I1287137
aI105
asS'1754'
p425
(lp426
I1287242
aI616
asS'1753'
p427
(lp428
I1287858
aI641
asS'1752'
p429
(lp430
I1288499
aI800
asS'1751'
p431
(lp432
I1289299
aI752
asS'1750'
p433
(lp434
I1290051
aI902
asS'1177'
p435
(lp436
I1290953
aI69
asS'1176'
p437
(lp438
I1291022
aI95
asS'1175'
p439
(lp440
I1291117
aI67
asS'1174'
p441
(lp442
I1291184
aI74
asS'1173'
p443
(lp444
I1291258
aI451
asS'1172'
p445
(lp446
I1291709
aI575
asS'1171'
p447
(lp448
I1292284
aI602
asS'1170'
p449
(lp450
I1292886
aI1000
asS'1179'
p451
(lp452
I1293886
aI751
asS'1178'
p453
(lp454
I1294637
aI103
asS'1007'
p455
(lp456
I8653130
aI247
asS'1006'
p457
(lp458
I8653377
aI241
asS'1005'
p459
(lp460
I8653618
aI70
asS'644'
p461
(lp462
I21384670
aI681
asS'1285'
p463
(lp464
I1302820
aI133
asS'1284'
p465
(lp466
I1302953
aI72
asS'1287'
p467
(lp468
I1303025
aI105
asS'1004'
p469
(lp470
I8653688
aI56
asS'1281'
p471
(lp472
I1303200
aI382
asS'1280'
p473
(lp474
I1303582
aI596
asS'1283'
p475
(lp476
I1304178
aI68
asS'1282'
p477
(lp478
I1304246
aI393
asS'515'
p479
(lp480
I8653744
aI100
asS'879'
p481
(lp482
I1305872
aI110
asS'1289'
p483
(lp484
I1305982
aI83
asS'1288'
p485
(lp486
I1306065
aI380
asS'1002'
p487
(lp488
I8653844
aI607
asS'876'
p489
(lp490
I18815267
aI83
asS'1579'
p491
(lp492
I1343356
aI112
asS'1578'
p493
(lp494
I1343468
aI130
asS'689'
p495
(lp496
I1343598
aI212
asS'688'
p497
(lp498
I1343810
aI91
asS'877'
p499
(lp500
I18815350
aI108
asS'685'
p501
(lp502
I1347233
aI71
asS'684'
p503
(lp504
I1347304
aI85
asS'687'
p505
(lp506
I1347389
aI62
asS'686'
p507
(lp508
I1347451
aI48
asS'681'
p509
(lp510
I1347499
aI94
asS'680'
p511
(lp512
I1347593
aI72
asS'683'
p513
(lp514
I1347665
aI86
asS'682'
p515
(lp516
I1347751
aI63
asS'1227'
p517
(lp518
I2915308
aI57
asS'875'
p519
(lp520
I18815526
aI96
asS'4188'
p521
(lp522
I6859174
aI12641
asS'872'
p523
(lp524
I18815622
aI102
asS'1240'
p525
(lp526
I18815210
aI57
asS'1225'
p527
(lp528
I8654748
aI532
asS'3435'
p529
(lp530
I22654665
aI19183
asS'620'
p531
(lp532
I8655280
aI57
asS'870'
p533
(lp534
I18815845
aI81
asS'627'
p535
(lp536
I8655337
aI52
asS'871'
p537
(lp538
I18815926
aI61
asS'626'
p539
(lp540
I8655389
aI183
asS'2037'
p541
(lp542
I18815987
aI113
asS'625'
p543
(lp544
I8655572
aI96
asS'2036'
p545
(lp546
I18816100
aI705
asS'1243'
p547
(lp548
I18815724
aI121
asS'624'
p549
(lp550
I8655668
aI73
asS'2035'
p551
(lp552
I18816805
aI1200
asS'407'
p553
(lp554
I1513715
aI110
asS'406'
p555
(lp556
I1513825
aI189
asS'405'
p557
(lp558
I1514014
aI337
asS'404'
p559
(lp560
I1514351
aI76
asS'403'
p561
(lp562
I1514427
aI128
asS'1374'
p563
(lp564
I1206472
aI108
asS'401'
p565
(lp566
I1514602
aI67
asS'400'
p567
(lp568
I1514669
aI116
asS'1379'
p569
(lp570
I1514785
aI747
asS'1378'
p571
(lp572
I1515532
aI103
asS'1219'
p573
(lp574
I10970266
aI97
asS'629'
p575
(lp576
I8704742
aI88
asS'409'
p577
(lp578
I1515704
aI685
asS'408'
p579
(lp580
I1516389
aI125
asS'3834'
p581
(lp582
I1516514
aI17681
asS'3835'
p583
(lp584
I1534195
aI14487
asS'3836'
p585
(lp586
I1548682
aI24925
asS'628'
p587
(lp588
I8704830
aI118
asS'3830'
p589
(lp590
I1573669
aI50001
asS'3831'
p591
(lp592
I11541266
aI28957
asS'3832'
p593
(lp594
I1623976
aI9355
asS'3833'
p595
(lp596
I1633331
aI23055
asS'1344'
p597
(lp598
I23554224
aI469
asS'2192'
p599
(lp600
I26972282
aI337
asS'2030'
p601
(lp602
I18820344
aI742
asS'3838'
p603
(lp604
I1657056
aI33000
asS'3839'
p605
(lp606
I1690056
aI37250
asS'1345'
p607
(lp608
I23554693
aI259
asS'4031'
p609
(lp610
I1727372
aI44161
asS'4030'
p611
(lp612
I12066471
aI6200
asS'4033'
p613
(lp614
I1772128
aI47277
asS'4032'
p615
(lp616
I1819405
aI6858
asS'4035'
p617
(lp618
I1826263
aI31542
asS'4034'
p619
(lp620
I12156133
aI16747
asS'4037'
p621
(lp622
I1858372
aI3484
asS'4036'
p623
(lp624
I12173956
aI6079
asS'4039'
p625
(lp626
I1862154
aI32909
asS'4038'
p627
(lp628
I1895063
aI9258
asS'1228'
p629
(lp630
I8789519
aI69
asS'1018'
p631
(lp632
I17334605
aI60
asS'1245'
p633
(lp634
I18821129
aI52
asS'265'
p635
(lp636
I26967315
aI389
asS'379'
p637
(lp638
I2022393
aI40
asS'378'
p639
(lp640
I2022433
aI97
asS'647'
p641
(lp642
I21385351
aI90
asS'371'
p643
(lp644
I2037808
aI93
asS'370'
p645
(lp646
I2037901
aI63
asS'373'
p647
(lp648
I2037964
aI86
asS'372'
p649
(lp650
I2038050
aI74
asS'375'
p651
(lp652
I2038124
aI56
asS'374'
p653
(lp654
I2038180
aI56
asS'377'
p655
(lp656
I2038236
aI51
asS'376'
p657
(lp658
I2038287
aI59
asS'1244'
p659
(lp660
I18822458
aI65
asS'2061'
p661
(lp662
I25035597
aI884
asS'393'
p663
(lp664
I2060960
aI129
asS'392'
p665
(lp666
I2061089
aI75
asS'391'
p667
(lp668
I2061164
aI68
asS'390'
p669
(lp670
I2061232
aI112
asS'397'
p671
(lp672
I2061344
aI851
asS'396'
p673
(lp674
I2062195
aI605
asS'395'
p675
(lp676
I2062800
aI53
asS'394'
p677
(lp678
I2062853
aI66
asS'399'
p679
(lp680
I2062919
aI146
asS'398'
p681
(lp682
I2063065
aI51
asS'2309'
p683
(lp684
I2069368
aI241
asS'2308'
p685
(lp686
I2069609
aI650
asS'2301'
p687
(lp688
I2070259
aI769
asS'2300'
p689
(lp690
I2071028
aI730
asS'2303'
p691
(lp692
I2071758
aI242
asS'2302'
p693
(lp694
I2072000
aI863
asS'2305'
p695
(lp696
I2072863
aI652
asS'2304'
p697
(lp698
I2073515
aI426
asS'2307'
p699
(lp700
I2073941
aI730
asS'2306'
p701
(lp702
I2074671
aI317
asS'898'
p703
(lp704
I18825477
aI57
asS'1246'
p705
(lp706
I21385441
aI58
asS'3748'
p707
(lp708
I2121774
aI46106
asS'3749'
p709
(lp710
I2167880
aI34781
asS'3746'
p711
(lp712
I2202661
aI27919
asS'3747'
p713
(lp714
I4206137
aI44413
asS'3744'
p715
(lp716
I2231197
aI39937
asS'3745'
p717
(lp718
I2271134
aI12805
asS'3742'
p719
(lp720
I2283939
aI50486
asS'3743'
p721
(lp722
I2334425
aI47424
asS'3740'
p723
(lp724
I2381849
aI4561
asS'3741'
p725
(lp726
I2386410
aI31587
asS'245'
p727
(lp728
I2417997
aI118
asS'244'
p729
(lp730
I2418115
aI84
asS'247'
p731
(lp732
I2418199
aI86
asS'246'
p733
(lp734
I2418285
aI102
asS'241'
p735
(lp736
I2418387
aI505
asS'240'
p737
(lp738
I2418892
aI108
asS'243'
p739
(lp740
I2419000
aI812
asS'242'
p741
(lp742
I2419812
aI268
asS'249'
p743
(lp744
I2468655
aI108
asS'248'
p745
(lp746
I2468763
aI492
asS'2275'
p747
(lp748
I2469255
aI693
asS'2274'
p749
(lp750
I2469948
aI895
asS'2277'
p751
(lp752
I2470843
aI603
asS'2276'
p753
(lp754
I2471446
aI685
asS'2271'
p755
(lp756
I2472131
aI84
asS'2270'
p757
(lp758
I2472215
aI196
asS'2273'
p759
(lp760
I2472411
aI691
asS'2272'
p761
(lp762
I2473102
aI343
asS'2404'
p763
(lp764
I12861766
aI169
asS'2279'
p765
(lp766
I2473445
aI257
asS'2278'
p767
(lp768
I2473702
aI185
asS'1248'
p769
(lp770
I21385558
aI232
asS'2459'
p771
(lp772
I2475453
aI118
asS'2458'
p773
(lp774
I2475571
aI80
asS'723'
p775
(lp776
I27545547
aI36
asS'2156'
p777
(lp778
I25829025
aI185
asS'2455'
p779
(lp780
I2475651
aI662
asS'2454'
p781
(lp782
I2476313
aI549
asS'2457'
p783
(lp784
I2476862
aI493
asS'2456'
p785
(lp786
I2477355
aI583
asS'2451'
p787
(lp788
I2477938
aI1037
asS'2450'
p789
(lp790
I2478975
aI514
asS'2453'
p791
(lp792
I2479489
aI785
asS'2452'
p793
(lp794
I2480274
aI747
asS'179'
p795
(lp796
I2481021
aI99
asS'178'
p797
(lp798
I2481120
aI59
asS'177'
p799
(lp800
I2481179
aI186
asS'176'
p801
(lp802
I2481365
aI99
asS'175'
p803
(lp804
I2481464
aI148
asS'174'
p805
(lp806
I2481612
aI134
asS'173'
p807
(lp808
I2481746
aI52
asS'172'
p809
(lp810
I2481798
aI74
asS'171'
p811
(lp812
I2481872
aI68
asS'170'
p813
(lp814
I2481940
aI98
asS'3698'
p815
(lp816
I6487544
aI11462
asS'2050'
p817
(lp818
I16572505
aI701
asS'2053'
p819
(lp820
I2483379
aI922
asS'2052'
p821
(lp822
I2484301
aI446
asS'2055'
p823
(lp824
I2484747
aI165
asS'2054'
p825
(lp826
I2484912
aI1057
asS'2057'
p827
(lp828
I2485969
aI244
asS'2056'
p829
(lp830
I16585107
aI127
asS'2059'
p831
(lp832
I2486869
aI673
asS'2058'
p833
(lp834
I2487542
aI167
asS'3692'
p835
(lp836
I2487709
aI28885
asS'3693'
p837
(lp838
I2516594
aI642
asS'3694'
p839
(lp840
I2517236
aI38507
asS'3695'
p841
(lp842
I16715001
aI36935
asS'3696'
p843
(lp844
I2555822
aI36447
asS'3697'
p845
(lp846
I2592269
aI27352
asS'655'
p847
(lp848
I23732090
aI277
asS'3089'
p849
(lp850
I6636993
aI548
asS'3088'
p851
(lp852
I6709640
aI755
asS'650'
p853
(lp854
I23732585
aI80
asS'651'
p855
(lp856
I23732665
aI79
asS'3526'
p857
(lp858
I2651399
aI36432
asS'3527'
p859
(lp860
I18740859
aI37915
asS'3524'
p861
(lp862
I2687990
aI47595
asS'3525'
p863
(lp864
I2735585
aI42078
asS'3522'
p865
(lp866
I2777663
aI24533
asS'3523'
p867
(lp868
I2802196
aI26238
asS'3520'
p869
(lp870
I2828434
aI38244
asS'3521'
p871
(lp872
I2866678
aI47410
asS'1508'
p873
(lp874
I23733987
aI89
asS'3528'
p875
(lp876
I19782670
aI38942
asS'3529'
p877
(lp878
I2915365
aI42263
asS'1364'
p879
(lp880
I27629653
aI355
asS'1509'
p881
(lp882
I23734076
aI115
asS'338'
p883
(lp884
I21387295
aI68
asS'3081'
p885
(lp886
I23734191
aI893
asS'3080'
p887
(lp888
I23735084
aI713
asS'1601'
p889
(lp890
I5180130
aI648
asS'658'
p891
(lp892
I23735797
aI134
asS'2699'
p893
(lp894
I2995567
aI809
asS'1976'
p895
(lp896
I2996376
aI988
asS'2697'
p897
(lp898
I2997364
aI1091
asS'2696'
p899
(lp900
I2998455
aI624
asS'2695'
p901
(lp902
I2999079
aI813
asS'3082'
p903
(lp904
I7418954
aI523
asS'2693'
p905
(lp906
I2999964
aI234
asS'1975'
p907
(lp908
I3000198
aI456
asS'2691'
p909
(lp910
I3000654
aI237
asS'2690'
p911
(lp912
I3000891
aI117
asS'1974'
p913
(lp914
I3001179
aI819
asS'1973'
p915
(lp916
I3008539
aI432
asS'1972'
p917
(lp918
I3008971
aI360
asS'1971'
p919
(lp920
I3009331
aI268
asS'1970'
p921
(lp922
I3009599
aI307
asS'1362'
p923
(lp924
I27630860
aI813
asS'3232'
p925
(lp926
I3009906
aI20150
asS'3233'
p927
(lp928
I3030056
aI21885
asS'3230'
p929
(lp930
I3051941
aI1651
asS'3231'
p931
(lp932
I3053592
aI24490
asS'1968'
p933
(lp934
I3078082
aI245
asS'1969'
p935
(lp936
I3078327
aI121
asS'1618'
p937
(lp938
I3078448
aI109
asS'1619'
p939
(lp940
I3078557
aI302
asS'1616'
p941
(lp942
I3078859
aI408
asS'1617'
p943
(lp944
I3079267
aI103
asS'3238'
p945
(lp946
I847659
aI27915
asS'1967'
p947
(lp948
I7417299
aI162
asS'1612'
p949
(lp950
I3080345
aI459
asS'1613'
p951
(lp952
I3080804
aI534
asS'1610'
p953
(lp954
I3081338
aI403
asS'1611'
p955
(lp956
I3081741
aI406
asS'2063'
p957
(lp958
I25037124
aI51
asS'1363'
p959
(lp960
I27631673
aI430
asS'2873'
p961
(lp962
I3155434
aI644
asS'2872'
p963
(lp964
I3156078
aI86
asS'2871'
p965
(lp966
I3156164
aI682
asS'2870'
p967
(lp968
I3156846
aI755
asS'2877'
p969
(lp970
I3157601
aI580
asS'2876'
p971
(lp972
I3158181
aI770
asS'2875'
p973
(lp974
I3158951
aI171
asS'2874'
p975
(lp976
I19301600
aI433
asS'2879'
p977
(lp978
I3160033
aI283
asS'2878'
p979
(lp980
I3160316
aI680
asS'3355'
p981
(lp982
I3160996
aI1210
asS'3354'
p983
(lp984
I3162206
aI33878
asS'3357'
p985
(lp986
I3196084
aI34397
asS'3356'
p987
(lp988
I3230481
aI37675
asS'3351'
p989
(lp990
I3268156
aI32124
asS'3350'
p991
(lp992
I3300280
aI50228
asS'3353'
p993
(lp994
I3350508
aI12812
asS'3352'
p995
(lp996
I3363320
aI13074
asS'1360'
p997
(lp998
I27632103
aI81
asS'3359'
p999
(lp1000
I3376394
aI19195
asS'3358'
p1001
(lp1002
I3395589
aI47140
asS'1768'
p1003
(lp1004
I3494267
aI871
asS'1769'
p1005
(lp1006
I3495138
aI1096
asS'1361'
p1007
(lp1008
I27632184
aI98
asS'1762'
p1009
(lp1010
I3496234
aI109
asS'1763'
p1011
(lp1012
I3496343
aI227
asS'1760'
p1013
(lp1014
I3496570
aI148
asS'1761'
p1015
(lp1016
I3496718
aI169
asS'1766'
p1017
(lp1018
I3496887
aI581
asS'1767'
p1019
(lp1020
I3497468
aI465
asS'1764'
p1021
(lp1022
I3497933
aI1041
asS'1765'
p1023
(lp1024
I3498974
aI657
asS'1142'
p1025
(lp1026
I3499631
aI72
asS'1143'
p1027
(lp1028
I3499703
aI898
asS'1140'
p1029
(lp1030
I3500601
aI68
asS'1141'
p1031
(lp1032
I3500669
aI69
asS'1146'
p1033
(lp1034
I3500738
aI475
asS'1147'
p1035
(lp1036
I3501213
aI554
asS'1144'
p1037
(lp1038
I3501767
aI391
asS'1145'
p1039
(lp1040
I3502158
aI942
asS'1148'
p1041
(lp1042
I3503100
aI284
asS'1149'
p1043
(lp1044
I3503384
aI75
asS'768'
p1045
(lp1046
I19152723
aI190
asS'2966'
p1047
(lp1048
I3504470
aI609
asS'336'
p1049
(lp1050
I21388085
aI142
asS'2762'
p1051
(lp1052
I14508976
aI123
asS'692'
p1053
(lp1054
I3540934
aI62
asS'693'
p1055
(lp1056
I3540996
aI356
asS'1544'
p1057
(lp1058
I6753109
aI632
asS'1545'
p1059
(lp1060
I6759814
aI92
asS'696'
p1061
(lp1062
I3541857
aI911
asS'697'
p1063
(lp1064
I3542768
aI172
asS'694'
p1065
(lp1066
I3542940
aI328
asS'695'
p1067
(lp1068
I3543268
aI1048
asS'698'
p1069
(lp1070
I3544316
aI452
asS'699'
p1071
(lp1072
I3544768
aI326
asS'1548'
p1073
(lp1074
I3545094
aI369
asS'1549'
p1075
(lp1076
I3545463
aI620
asS'542'
p1077
(lp1078
I3546083
aI54
asS'543'
p1079
(lp1080
I3546137
aI66
asS'540'
p1081
(lp1082
I3546203
aI119
asS'541'
p1083
(lp1084
I3546322
aI67
asS'546'
p1085
(lp1086
I3546389
aI99
asS'547'
p1087
(lp1088
I3546488
aI85
asS'544'
p1089
(lp1090
I3546573
aI71
asS'545'
p1091
(lp1092
I3546644
aI93
asS'548'
p1093
(lp1094
I3595177
aI108
asS'549'
p1095
(lp1096
I3595285
aI116
asS'760'
p1097
(lp1098
I19155013
aI44
asS'761'
p1099
(lp1100
I19155057
aI281
asS'2969'
p1101
(lp1102
I18429462
aI514
asS'1982'
p1103
(lp1104
I23511423
aI229
asS'2064'
p1105
(lp1106
I25037175
aI700
asS'2968'
p1107
(lp1108
I2648767
aI842
asS'764'
p1109
(lp1110
I19155624
aI106
asS'765'
p1111
(lp1112
I19155730
aI113
asS'2799'
p1113
(lp1114
I24995791
aI534
asS'9'
p1115
(lp1116
I18821086
aI43
asS'414'
p1117
(lp1118
I3693048
aI321
asS'415'
p1119
(lp1120
I3693369
aI83
asS'416'
p1121
(lp1122
I3693452
aI159
asS'417'
p1123
(lp1124
I3693611
aI569
asS'410'
p1125
(lp1126
I3694180
aI63
asS'411'
p1127
(lp1128
I3694243
aI103
asS'412'
p1129
(lp1130
I3694346
aI70
asS'413'
p1131
(lp1132
I3694416
aI108
asS'1384'
p1133
(lp1134
I3694524
aI535
asS'1385'
p1135
(lp1136
I3695059
aI921
asS'1386'
p1137
(lp1138
I3695980
aI616
asS'1387'
p1139
(lp1140
I3696596
aI578
asS'418'
p1141
(lp1142
I3697174
aI56
asS'419'
p1143
(lp1144
I3697230
aI72
asS'1382'
p1145
(lp1146
I3697302
aI418
asS'1383'
p1147
(lp1148
I3697720
aI373
asS'3827'
p1149
(lp1150
I3698093
aI13713
asS'3826'
p1151
(lp1152
I3711806
aI47129
asS'3825'
p1153
(lp1154
I3758935
aI19828
asS'3824'
p1155
(lp1156
I3778763
aI22179
asS'3823'
p1157
(lp1158
I3800942
aI14830
asS'3822'
p1159
(lp1160
I3815772
aI24187
asS'3821'
p1161
(lp1162
I3839959
aI29842
asS'3820'
p1163
(lp1164
I3869801
aI44131
asS'2769'
p1165
(lp1166
I14428411
aI435
asS'3829'
p1167
(lp1168
I3933891
aI33359
asS'3828'
p1169
(lp1170
I3967250
aI12332
asS'2768'
p1171
(lp1172
I14428846
aI352
asS'1254'
p1173
(lp1174
I19313571
aI241
asS'1292'
p1175
(lp1176
I27621612
aI552
asS'2099'
p1177
(lp1178
I10320576
aI219
asS'2763'
p1179
(lp1180
I14508803
aI173
asS'1447'
p1181
(lp1182
I26652077
aI79
asS'368'
p1183
(lp1184
I4152843
aI89
asS'369'
p1185
(lp1186
I4152932
aI71
asS'366'
p1187
(lp1188
I4153003
aI76
asS'367'
p1189
(lp1190
I4153079
aI411
asS'364'
p1191
(lp1192
I4153490
aI66
asS'365'
p1193
(lp1194
I4153556
aI92
asS'362'
p1195
(lp1196
I4153648
aI61
asS'363'
p1197
(lp1198
I4153709
aI90
asS'360'
p1199
(lp1200
I4153799
aI69
asS'361'
p1201
(lp1202
I4153868
aI80
asS'1945'
p1203
(lp1204
I6757029
aI582
asS'2098'
p1205
(lp1206
I10320795
aI198
asS'380'
p1207
(lp1208
I4154664
aI364
asS'381'
p1209
(lp1210
I4155028
aI68
asS'382'
p1211
(lp1212
I4155096
aI73
asS'383'
p1213
(lp1214
I4155169
aI96
asS'384'
p1215
(lp1216
I4155265
aI64
asS'385'
p1217
(lp1218
I4155329
aI55
asS'386'
p1219
(lp1220
I4155384
aI63
asS'387'
p1221
(lp1222
I4155447
aI67
asS'388'
p1223
(lp1224
I4155514
aI123
asS'389'
p1225
(lp1226
I4155637
aI72
asS'2065'
p1227
(lp1228
I25037875
aI901
asS'1369'
p1229
(lp1230
I27708935
aI343
asS'1253'
p1231
(lp1232
I19314815
aI474
asS'1077'
p1233
(lp1234
I19163900
aI66
asS'3759'
p1235
(lp1236
I4292920
aI11364
asS'3758'
p1237
(lp1238
I4304284
aI29914
asS'3751'
p1239
(lp1240
I4334198
aI40051
asS'3750'
p1241
(lp1242
I4374249
aI33544
asS'3753'
p1243
(lp1244
I4407793
aI41758
asS'3752'
p1245
(lp1246
I4449551
aI48696
asS'3755'
p1247
(lp1248
I4498247
aI33099
asS'3754'
p1249
(lp1250
I4531346
aI12915
asS'3757'
p1251
(lp1252
I4544261
aI30180
asS'3756'
p1253
(lp1254
I4574441
aI10306
asS'2190'
p1255
(lp1256
I4584747
aI43
asS'2191'
p1257
(lp1258
I4584790
aI126
asS'258'
p1259
(lp1260
I4584916
aI79
asS'259'
p1261
(lp1262
I4584995
aI84
asS'2194'
p1263
(lp1264
I4585079
aI882
asS'2195'
p1265
(lp1266
I4585961
aI876
asS'2196'
p1267
(lp1268
I4586837
aI1121
asS'2197'
p1269
(lp1270
I4587958
aI899
asS'2198'
p1271
(lp1272
I2474193
aI1260
asS'253'
p1273
(lp1274
I4589326
aI123
asS'250'
p1275
(lp1276
I4589449
aI90
asS'251'
p1277
(lp1278
I4589539
aI401
asS'256'
p1279
(lp1280
I4589940
aI76
asS'257'
p1281
(lp1282
I4590016
aI70
asS'254'
p1283
(lp1284
I4590086
aI612
asS'255'
p1285
(lp1286
I4590698
aI54
asS'2200'
p1287
(lp1288
I4590752
aI587
asS'2201'
p1289
(lp1290
I4591339
aI871
asS'2202'
p1291
(lp1292
I4592210
aI1155
asS'2203'
p1293
(lp1294
I4593365
aI969
asS'2204'
p1295
(lp1296
I4594334
aI517
asS'2205'
p1297
(lp1298
I4594851
aI166
asS'2206'
p1299
(lp1300
I4595017
aI407
asS'2207'
p1301
(lp1302
I4595424
aI584
asS'2208'
p1303
(lp1304
I4596008
aI678
asS'2209'
p1305
(lp1306
I4596686
aI380
asS'1301'
p1307
(lp1308
I15008007
aI64
asS'2428'
p1309
(lp1310
I4632752
aI209
asS'2429'
p1311
(lp1312
I4632961
aI334
asS'2420'
p1313
(lp1314
I4633818
aI773
asS'2421'
p1315
(lp1316
I4634591
aI1243
asS'2422'
p1317
(lp1318
I4635834
aI111
asS'2423'
p1319
(lp1320
I4635945
aI917
asS'2424'
p1321
(lp1322
I4636862
aI892
asS'900'
p1323
(lp1324
I14513194
aI64
asS'2426'
p1325
(lp1326
I4637873
aI170
asS'2427'
p1327
(lp1328
I4638043
aI153
asS'901'
p1329
(lp1330
I14513258
aI81
asS'168'
p1331
(lp1332
I4638596
aI122
asS'169'
p1333
(lp1334
I4638718
aI75
asS'164'
p1335
(lp1336
I4638793
aI78
asS'165'
p1337
(lp1338
I4638871
aI90
asS'166'
p1339
(lp1340
I4638961
aI100
asS'167'
p1341
(lp1342
I4639061
aI84
asS'160'
p1343
(lp1344
I4639145
aI73
asS'161'
p1345
(lp1346
I4639218
aI96
asS'162'
p1347
(lp1348
I4639314
aI66
asS'163'
p1349
(lp1350
I4639380
aI61
asS'3689'
p1351
(lp1352
I4639441
aI898
asS'3688'
p1353
(lp1354
I4640339
aI16434
asS'3683'
p1355
(lp1356
I4656773
aI27202
asS'3682'
p1357
(lp1358
I4683975
aI6236
asS'3681'
p1359
(lp1360
I4690211
aI33384
asS'3680'
p1361
(lp1362
I4723595
aI48716
asS'3687'
p1363
(lp1364
I4772311
aI9548
asS'3686'
p1365
(lp1366
I4781859
aI6768
asS'3685'
p1367
(lp1368
I4788627
aI23665
asS'3684'
p1369
(lp1370
I4812292
aI30642
asS'3461'
p1371
(lp1372
I22082963
aI46729
asS'2518'
p1373
(lp1374
I4870307
aI624
asS'2519'
p1375
(lp1376
I4870931
aI607
asS'1980'
p1377
(lp1378
I26969897
aI174
asS'2514'
p1379
(lp1380
I4871678
aI532
asS'2515'
p1381
(lp1382
I4872210
aI688
asS'2516'
p1383
(lp1384
I4872898
aI689
asS'2517'
p1385
(lp1386
I4873587
aI487
asS'2510'
p1387
(lp1388
I4874074
aI118
asS'2511'
p1389
(lp1390
I10779891
aI50
asS'2512'
p1391
(lp1392
I4874368
aI143
asS'2513'
p1393
(lp1394
I4874511
aI391
asS'2734'
p1395
(lp1396
I4874902
aI1107
asS'2735'
p1397
(lp1398
I4876009
aI233
asS'2736'
p1399
(lp1400
I4876242
aI156
asS'2737'
p1401
(lp1402
I875664
aI603
asS'2730'
p1403
(lp1404
I4876547
aI511
asS'2731'
p1405
(lp1406
I4877058
aI121
asS'2732'
p1407
(lp1408
I4877179
aI603
asS'2733'
p1409
(lp1410
I4877782
aI595
asS'2738'
p1411
(lp1412
I4914580
aI469
asS'2739'
p1413
(lp1414
I4915049
aI919
asS'3460'
p1415
(lp1416
I22234967
aI27988
asS'3531'
p1417
(lp1418
I4915968
aI8102
asS'3530'
p1419
(lp1420
I432703
aI42305
asS'3533'
p1421
(lp1422
I4957100
aI25947
asS'3532'
p1423
(lp1424
I4983047
aI12588
asS'3535'
p1425
(lp1426
I4995635
aI12002
asS'3534'
p1427
(lp1428
I5007637
aI11321
asS'3537'
p1429
(lp1430
I5018958
aI40672
asS'3536'
p1431
(lp1432
I5059630
aI29973
asS'3539'
p1433
(lp1434
I5089603
aI30081
asS'3538'
p1435
(lp1436
I1250785
aI20991
asS'1091'
p1437
(lp1438
I19172141
aI103
asS'1814'
p1439
(lp1440
I5120840
aI127
asS'1815'
p1441
(lp1442
I5120967
aI150
asS'1816'
p1443
(lp1444
I5121117
aI253
asS'1817'
p1445
(lp1446
I5121370
aI164
asS'1810'
p1447
(lp1448
I5121534
aI929
asS'1811'
p1449
(lp1450
I5122463
aI1080
asS'1812'
p1451
(lp1452
I5123543
aI141
asS'1813'
p1453
(lp1454
I5123684
aI183
asS'1093'
p1455
(lp1456
I19172327
aI72
asS'1818'
p1457
(lp1458
I5123867
aI224
asS'1819'
p1459
(lp1460
I5124091
aI244
asS'300'
p1461
(lp1462
I19323288
aI312
asS'1098'
p1463
(lp1464
I19174105
aI1088
asS'1099'
p1465
(lp1466
I19175193
aI985
asS'3077'
p1467
(lp1468
I25469844
aI1502
asS'673'
p1469
(lp1470
I19176267
aI67
asS'1609'
p1471
(lp1472
I5127870
aI752
asS'1608'
p1473
(lp1474
I5128622
aI573
asS'3229'
p1475
(lp1476
I5129195
aI25786
asS'3228'
p1477
(lp1478
I5154981
aI24054
asS'1979'
p1479
(lp1480
I5179035
aI162
asS'1978'
p1481
(lp1482
I5179197
aI933
asS'3225'
p1483
(lp1484
I7533971
aI50004
asS'1600'
p1485
(lp1486
I5180778
aI76
asS'1603'
p1487
(lp1488
I5180854
aI673
asS'3226'
p1489
(lp1490
I4878377
aI36203
asS'1605'
p1491
(lp1492
I5182196
aI887
asS'1604'
p1493
(lp1494
I5183083
aI517
asS'1607'
p1495
(lp1496
I5183600
aI84
asS'1606'
p1497
(lp1498
I5183684
aI102
asS'809'
p1499
(lp1500
I5183786
aI62
asS'808'
p1501
(lp1502
I5183848
aI76
asS'803'
p1503
(lp1504
I5183924
aI55
asS'802'
p1505
(lp1506
I5183979
aI53
asS'801'
p1507
(lp1508
I5184032
aI88
asS'800'
p1509
(lp1510
I5184120
aI151
asS'807'
p1511
(lp1512
I5184271
aI63
asS'806'
p1513
(lp1514
I5184334
aI75
asS'805'
p1515
(lp1516
I5184409
aI59
asS'804'
p1517
(lp1518
I5184468
aI75
asS'2848'
p1519
(lp1520
I5184543
aI435
asS'2849'
p1521
(lp1522
I5184978
aI973
asS'2846'
p1523
(lp1524
I5185951
aI696
asS'2847'
p1525
(lp1526
I5186647
aI481
asS'2844'
p1527
(lp1528
I5187128
aI168
asS'2845'
p1529
(lp1530
I5187296
aI412
asS'2842'
p1531
(lp1532
I5187708
aI738
asS'2843'
p1533
(lp1534
I5188446
aI483
asS'2840'
p1535
(lp1536
I5188929
aI578
asS'2841'
p1537
(lp1538
I5189507
aI660
asS'3320'
p1539
(lp1540
I3623919
aI26142
asS'3321'
p1541
(lp1542
I5190977
aI20993
asS'3322'
p1543
(lp1544
I5211970
aI37969
asS'3323'
p1545
(lp1546
I5249939
aI6159
asS'3324'
p1547
(lp1548
I5256098
aI23500
asS'3325'
p1549
(lp1550
I5279598
aI15310
asS'3326'
p1551
(lp1552
I5294908
aI32753
asS'3327'
p1553
(lp1554
I5327661
aI16135
asS'3328'
p1555
(lp1556
I5343796
aI23789
asS'3329'
p1557
(lp1558
I5367585
aI7362
asS'1259'
p1559
(lp1560
I19316983
aI384
asS'1775'
p1561
(lp1562
I5424122
aI203
asS'1774'
p1563
(lp1564
I5424325
aI521
asS'1777'
p1565
(lp1566
I5424846
aI172
asS'1776'
p1567
(lp1568
I5425018
aI111
asS'1771'
p1569
(lp1570
I5425129
aI934
asS'1770'
p1571
(lp1572
I5426063
aI544
asS'1773'
p1573
(lp1574
I5426607
aI124
asS'1772'
p1575
(lp1576
I5426731
aI92
asS'1779'
p1577
(lp1578
I5426823
aI124
asS'1778'
p1579
(lp1580
I5426947
aI123
asS'321'
p1581
(lp1582
I24266974
aI935
asS'2806'
p1583
(lp1584
I25767790
aI381
asS'326'
p1585
(lp1586
I24267909
aI57
asS'327'
p1587
(lp1588
I24267966
aI127
asS'2998'
p1589
(lp1590
I5526280
aI889
asS'1159'
p1591
(lp1592
I5527169
aI661
asS'1158'
p1593
(lp1594
I5527830
aI292
asS'2999'
p1595
(lp1596
I5528122
aI609
asS'1155'
p1597
(lp1598
I5528731
aI807
asS'1154'
p1599
(lp1600
I5529538
aI697
asS'1157'
p1601
(lp1602
I5530235
aI105
asS'1156'
p1603
(lp1604
I5530340
aI76
asS'1151'
p1605
(lp1606
I5530416
aI82
asS'1150'
p1607
(lp1608
I5530498
aI93
asS'1153'
p1609
(lp1610
I5530591
aI299
asS'1152'
p1611
(lp1612
I5530890
aI256
asS'2807'
p1613
(lp1614
I25768171
aI621
asS'1555'
p1615
(lp1616
I5562793
aI103
asS'1554'
p1617
(lp1618
I5563195
aI498
asS'1551'
p1619
(lp1620
I5563693
aI367
asS'1550'
p1621
(lp1622
I5564060
aI641
asS'1553'
p1623
(lp1624
I5564701
aI360
asS'1552'
p1625
(lp1626
I5565061
aI786
asS'59'
p1627
(lp1628
I5565847
aI177
asS'58'
p1629
(lp1630
I5566024
aI484
asS'1557'
p1631
(lp1632
I5566508
aI92
asS'1556'
p1633
(lp1634
I5566600
aI69
asS'55'
p1635
(lp1636
I5566669
aI49
asS'54'
p1637
(lp1638
I5566718
aI156
asS'57'
p1639
(lp1640
I5566874
aI58
asS'56'
p1641
(lp1642
I5566932
aI53
asS'51'
p1643
(lp1644
I5566985
aI108
asS'50'
p1645
(lp1646
I5567093
aI79
asS'53'
p1647
(lp1648
I5567172
aI46
asS'52'
p1649
(lp1650
I5567218
aI154
asS'537'
p1651
(lp1652
I5567372
aI199
asS'536'
p1653
(lp1654
I5567571
aI636
asS'535'
p1655
(lp1656
I5568207
aI118
asS'534'
p1657
(lp1658
I5568325
aI82
asS'533'
p1659
(lp1660
I5568407
aI929
asS'532'
p1661
(lp1662
I5569336
aI104
asS'531'
p1663
(lp1664
I5569440
aI1089
asS'530'
p1665
(lp1666
I5570529
aI103
asS'1518'
p1667
(lp1668
I25964339
aI730
asS'2992'
p1669
(lp1670
I5570632
aI153
asS'539'
p1671
(lp1672
I5570785
aI115
asS'538'
p1673
(lp1674
I5570900
aI138
asS'2993'
p1675
(lp1676
I5571038
aI834
asS'303'
p1677
(lp1678
I19323731
aI373
asS'1558'
p1679
(lp1680
I5571872
aI108
asS'2994'
p1681
(lp1682
I5571980
aI579
asS'2995'
p1683
(lp1684
I5604172
aI104
asS'1906'
p1685
(lp1686
I14779452
aI753
asS'1868'
p1687
(lp1688
I18560587
aI584
asS'2996'
p1689
(lp1690
I5627205
aI872
asS'1907'
p1691
(lp1692
I14780205
aI464
asS'2997'
p1693
(lp1694
I5671477
aI578
asS'1904'
p1695
(lp1696
I14780669
aI297
asS'1905'
p1697
(lp1698
I14780966
aI660
asS'304'
p1699
(lp1700
I19324104
aI90
asS'1902'
p1701
(lp1702
I14781626
aI519
asS'1903'
p1703
(lp1704
I14782145
aI217
asS'429'
p1705
(lp1706
I5784855
aI102
asS'428'
p1707
(lp1708
I5784957
aI71
asS'1900'
p1709
(lp1710
I14782362
aI534
asS'1399'
p1711
(lp1712
I5804167
aI341
asS'1398'
p1713
(lp1714
I5804508
aI564
asS'1397'
p1715
(lp1716
I6783251
aI813
asS'1396'
p1717
(lp1718
I6785110
aI386
asS'1395'
p1719
(lp1720
I6814159
aI352
asS'422'
p1721
(lp1722
I5805273
aI59
asS'1393'
p1723
(lp1724
I6845268
aI756
asS'1392'
p1725
(lp1726
I6846200
aI617
asS'1391'
p1727
(lp1728
I6846817
aI502
asS'1390'
p1729
(lp1730
I6858511
aI663
asS'3812'
p1731
(lp1732
I5805601
aI31892
asS'3813'
p1733
(lp1734
I6879987
aI19830
asS'3810'
p1735
(lp1736
I5869468
aI25784
asS'3811'
p1737
(lp1738
I5895252
aI18322
asS'3816'
p1739
(lp1740
I5913574
aI24774
asS'3817'
p1741
(lp1742
I5938348
aI32030
asS'3814'
p1743
(lp1744
I5970378
aI41784
asS'855'
p1745
(lp1746
I14784426
aI705
asS'3818'
p1747
(lp1748
I6026189
aI24752
asS'3819'
p1749
(lp1750
I6050941
aI15551
asS'856'
p1751
(lp1752
I14785131
aI449
asS'857'
p1753
(lp1754
I14785580
aI222
asS'850'
p1755
(lp1756
I14785802
aI410
asS'302'
p1757
(lp1758
I19323678
aI53
asS'851'
p1759
(lp1760
I14786212
aI628
asS'852'
p1761
(lp1762
I14786840
aI77
asS'853'
p1763
(lp1764
I14786917
aI60
asS'3177'
p1765
(lp1766
I27538618
aI471
asS'1443'
p1767
(lp1768
I20353375
aI428
asS'1321'
p1769
(lp1770
I19192965
aI64
asS'1425'
p1771
(lp1772
I25771105
aI827
asS'3992'
p1773
(lp1774
I13657570
aI10994
asS'2331'
p1775
(lp1776
I24604825
aI170
asS'2183'
p1777
(lp1778
I6475708
aI126
asS'2182'
p1779
(lp1780
I6475834
aI174
asS'2181'
p1781
(lp1782
I6476008
aI1418
asS'2180'
p1783
(lp1784
I6477426
aI316
asS'2187'
p1785
(lp1786
I6477742
aI625
asS'2186'
p1787
(lp1788
I6478367
aI948
asS'229'
p1789
(lp1790
I6479315
aI51
asS'228'
p1791
(lp1792
I6479366
aI53
asS'227'
p1793
(lp1794
I6479419
aI53
asS'226'
p1795
(lp1796
I6479472
aI120
asS'225'
p1797
(lp1798
I6479592
aI100
asS'224'
p1799
(lp1800
I6479692
aI567
asS'223'
p1801
(lp1802
I6480259
aI47
asS'222'
p1803
(lp1804
I6480306
aI237
asS'221'
p1805
(lp1806
I6480543
aI67
asS'220'
p1807
(lp1808
I6480610
aI108
asS'2213'
p1809
(lp1810
I6480718
aI233
asS'2212'
p1811
(lp1812
I6480951
aI96
asS'2211'
p1813
(lp1814
I6481047
aI627
asS'2210'
p1815
(lp1816
I6481674
aI824
asS'2217'
p1817
(lp1818
I6482498
aI1272
asS'2216'
p1819
(lp1820
I6483770
aI896
asS'2215'
p1821
(lp1822
I6484666
aI1034
asS'2214'
p1823
(lp1824
I6485700
aI229
asS'2219'
p1825
(lp1826
I6485929
aI817
asS'2218'
p1827
(lp1828
I6486746
aI798
asS'151'
p1829
(lp1830
I6530764
aI62
asS'150'
p1831
(lp1832
I6530826
aI91
asS'153'
p1833
(lp1834
I6530917
aI54
asS'152'
p1835
(lp1836
I6530971
aI74
asS'155'
p1837
(lp1838
I6531045
aI37
asS'154'
p1839
(lp1840
I6531082
aI66
asS'157'
p1841
(lp1842
I6531148
aI60
asS'156'
p1843
(lp1844
I6531208
aI92
asS'159'
p1845
(lp1846
I6531300
aI65
asS'158'
p1847
(lp1848
I6531365
aI73
asS'2431'
p1849
(lp1850
I6531438
aI199
asS'2430'
p1851
(lp1852
I6531637
aI176
asS'2437'
p1853
(lp1854
I6531813
aI744
asS'2436'
p1855
(lp1856
I6532557
aI381
asS'2435'
p1857
(lp1858
I6532938
aI376
asS'2434'
p1859
(lp1860
I6533314
aI450
asS'1161'
p1861
(lp1862
I27553865
aI759
asS'123'
p1863
(lp1864
I24824813
aI503
asS'2974'
p1865
(lp1866
I19998964
aI215
asS'656'
p1867
(lp1868
I23731780
aI130
asS'2509'
p1869
(lp1870
I6571286
aI84
asS'2508'
p1871
(lp1872
I6571370
aI109
asS'2507'
p1873
(lp1874
I6571479
aI401
asS'2506'
p1875
(lp1876
I6571880
aI155
asS'2505'
p1877
(lp1878
I6572035
aI185
asS'2504'
p1879
(lp1880
I6572220
aI232
asS'2503'
p1881
(lp1882
I6572452
aI70
asS'2502'
p1883
(lp1884
I6572522
aI184
asS'2501'
p1885
(lp1886
I6572706
aI824
asS'2500'
p1887
(lp1888
I6573530
aI887
asS'2727'
p1889
(lp1890
I6574417
aI380
asS'2726'
p1891
(lp1892
I6574797
aI928
asS'2725'
p1893
(lp1894
I6575725
aI119
asS'2724'
p1895
(lp1896
I6575844
aI63
asS'2723'
p1897
(lp1898
I6575907
aI879
asS'2722'
p1899
(lp1900
I6576786
aI1164
asS'2721'
p1901
(lp1902
I6577950
aI1111
asS'2720'
p1903
(lp1904
I6579061
aI814
asS'2729'
p1905
(lp1906
I6579875
aI215
asS'2728'
p1907
(lp1908
I6580090
aI503
asS'280'
p1909
(lp1910
I26707430
aI92
asS'125'
p1911
(lp1912
I24825644
aI75
asS'1807'
p1913
(lp1914
I6586400
aI857
asS'1806'
p1915
(lp1916
I6587257
aI654
asS'1805'
p1917
(lp1918
I6587911
aI1037
asS'1804'
p1919
(lp1920
I6588948
aI204
asS'1803'
p1921
(lp1922
I6589152
aI196
asS'1802'
p1923
(lp1924
I6589348
aI285
asS'1801'
p1925
(lp1926
I6589633
aI284
asS'1800'
p1927
(lp1928
I6589917
aI138
asS'3788'
p1929
(lp1930
I6590055
aI4633
asS'3789'
p1931
(lp1932
I6594688
aI41273
asS'1809'
p1933
(lp1934
I6635961
aI601
asS'1808'
p1935
(lp1936
I6636562
aI431
asS'2676'
p1937
(lp1938
I27330668
aI81
asS'126'
p1939
(lp1940
I24825719
aI109
asS'3716'
p1941
(lp1942
I24695285
aI10394
asS'1368'
p1943
(lp1944
I27708614
aI321
asS'127'
p1945
(lp1946
I24825828
aI52
asS'3258'
p1947
(lp1948
I6741613
aI10132
asS'3259'
p1949
(lp1950
I14467700
aI41103
asS'1948'
p1951
(lp1952
I6752265
aI844
asS'1949'
p1953
(lp1954
I14512792
aI226
asS'1257'
p1955
(lp1956
I19312982
aI589
asS'1942'
p1957
(lp1958
I6754595
aI225
asS'1943'
p1959
(lp1960
I6754820
aI191
asS'1940'
p1961
(lp1962
I6755011
aI209
asS'1941'
p1963
(lp1964
I6755220
aI128
asS'1946'
p1965
(lp1966
I6755348
aI1005
asS'1947'
p1967
(lp1968
I14680218
aI647
asS'1944'
p1969
(lp1970
I6756864
aI165
asS'3257'
p1971
(lp1972
I4842934
aI18127
asS'818'
p1973
(lp1974
I6757611
aI102
asS'819'
p1975
(lp1976
I6757713
aI59
asS'1255'
p1977
(lp1978
I19313812
aI505
asS'2425'
p1979
(lp1980
I27626702
aI54
asS'810'
p1981
(lp1982
I6758550
aI65
asS'811'
p1983
(lp1984
I6758615
aI66
asS'812'
p1985
(lp1986
I6758681
aI66
asS'813'
p1987
(lp1988
I6758747
aI72
asS'814'
p1989
(lp1990
I6758819
aI76
asS'815'
p1991
(lp1992
I6758895
aI79
asS'816'
p1993
(lp1994
I6758974
aI79
asS'817'
p1995
(lp1996
I6759053
aI49
asS'2859'
p1997
(lp1998
I6759102
aI712
asS'3207'
p1999
(lp2000
I18674444
aI33702
asS'1250'
p2001
(lp2002
I19315289
aI96
asS'3206'
p2003
(lp2004
I1973260
aI49133
asS'2851'
p2005
(lp2006
I6778421
aI1208
asS'2850'
p2007
(lp2008
I6779629
aI754
asS'2853'
p2009
(lp2010
I6780383
aI139
asS'1251'
p2011
(lp2012
I19315385
aI233
asS'2855'
p2013
(lp2014
I6781138
aI557
asS'3205'
p2015
(lp2016
I2039104
aI21856
asS'2857'
p2017
(lp2018
I6781880
aI556
asS'2856'
p2019
(lp2020
I6782436
aI702
asS'1490'
p2021
(lp2022
I6783138
aI113
asS'421'
p2023
(lp2024
I5805072
aI78
asS'1492'
p2025
(lp2026
I6784064
aI70
asS'1493'
p2027
(lp2028
I6784134
aI100
asS'1494'
p2029
(lp2030
I6784234
aI110
asS'1495'
p2031
(lp2032
I6784344
aI346
asS'1496'
p2033
(lp2034
I6784690
aI420
asS'420'
p2035
(lp2036
I5805150
aI54
asS'1498'
p2037
(lp2038
I6785496
aI338
asS'1627'
p2039
(lp2040
I1211231
aI538
asS'3339'
p2041
(lp2042
I6785924
aI3383
asS'3338'
p2043
(lp2044
I6789307
aI24852
asS'423'
p2045
(lp2046
I5805204
aI69
asS'1626'
p2047
(lp2048
I1211769
aI735
asS'1700'
p2049
(lp2050
I6840349
aI1035
asS'1701'
p2051
(lp2052
I6841384
aI89
asS'1702'
p2053
(lp2054
I6841473
aI70
asS'1394'
p2055
(lp2056
I6841543
aI747
asS'1704'
p2057
(lp2058
I6842290
aI182
asS'1705'
p2059
(lp2060
I6842472
aI1244
asS'1706'
p2061
(lp2062
I6843716
aI749
asS'1707'
p2063
(lp2064
I6844465
aI377
asS'1708'
p2065
(lp2066
I6844842
aI426
asS'425'
p2067
(lp2068
I5805332
aI82
asS'1996'
p2069
(lp2070
I6846024
aI176
asS'424'
p2071
(lp2072
I5805414
aI67
asS'427'
p2073
(lp2074
I5805481
aI45
asS'3658'
p2075
(lp2076
I18031413
aI20546
asS'426'
p2077
(lp2078
I5805526
aI75
asS'2090'
p2079
(lp2080
I10200941
aI269
asS'1128'
p2081
(lp2082
I6879447
aI71
asS'1129'
p2083
(lp2084
I6879518
aI86
asS'2834'
p2085
(lp2086
I23512108
aI527
asS'1120'
p2087
(lp2088
I6899817
aI117
asS'1121'
p2089
(lp2090
I6899934
aI307
asS'1122'
p2091
(lp2092
I6900241
aI222
asS'1123'
p2093
(lp2094
I6900463
aI56
asS'1124'
p2095
(lp2096
I6900519
aI57
asS'1125'
p2097
(lp2098
I6900576
aI48
asS'1126'
p2099
(lp2100
I6900624
aI75
asS'1127'
p2101
(lp2102
I6900699
aI61
asS'313'
p2103
(lp2104
I17528348
aI83
asS'305'
p2105
(lp2106
I19324194
aI47
asS'2989'
p2107
(lp2108
I6900760
aI838
asS'2988'
p2109
(lp2110
I6901598
aI766
asS'3029'
p2111
(lp2112
I6902364
aI84
asS'3028'
p2113
(lp2114
I6902448
aI749
asS'2983'
p2115
(lp2116
I6903197
aI101
asS'2982'
p2117
(lp2118
I6903298
aI118
asS'2981'
p2119
(lp2120
I6903416
aI649
asS'2980'
p2121
(lp2122
I6904065
aI686
asS'2987'
p2123
(lp2124
I6904751
aI937
asS'2986'
p2125
(lp2126
I6905688
aI780
asS'2985'
p2127
(lp2128
I6906468
aI884
asS'2984'
p2129
(lp2130
I6907352
aI430
asS'524'
p2131
(lp2132
I6907782
aI79
asS'525'
p2133
(lp2134
I6907861
aI85
asS'526'
p2135
(lp2136
I6907946
aI56
asS'527'
p2137
(lp2138
I6908002
aI533
asS'520'
p2139
(lp2140
I6908535
aI65
asS'521'
p2141
(lp2142
I6908600
aI54
asS'522'
p2143
(lp2144
I6908654
aI76
asS'523'
p2145
(lp2146
I6908730
aI56
asS'1014'
p2147
(lp2148
I6908786
aI430
asS'1015'
p2149
(lp2150
I6909216
aI435
asS'1016'
p2151
(lp2152
I6909651
aI245
asS'1017'
p2153
(lp2154
I6909896
aI123
asS'528'
p2155
(lp2156
I6910019
aI64
asS'529'
p2157
(lp2158
I6910083
aI98
asS'1012'
p2159
(lp2160
I6910181
aI949
asS'1013'
p2161
(lp2162
I6911130
aI465
asS'1234'
p2163
(lp2164
I6911595
aI779
asS'1235'
p2165
(lp2166
I6912374
aI879
asS'1236'
p2167
(lp2168
I6913253
aI746
asS'1237'
p2169
(lp2170
I6913999
aI583
asS'1230'
p2171
(lp2172
I6914582
aI279
asS'1231'
p2173
(lp2174
I6914861
aI227
asS'1232'
p2175
(lp2176
I6915088
aI97
asS'1233'
p2177
(lp2178
I6915185
aI351
asS'4196'
p2179
(lp2180
I6915536
aI48880
asS'4197'
p2181
(lp2182
I9860997
aI6979
asS'4194'
p2183
(lp2184
I6997587
aI39676
asS'4195'
p2185
(lp2186
I7037263
aI19414
asS'1238'
p2187
(lp2188
I7056677
aI651
asS'1239'
p2189
(lp2190
I7057328
aI62
asS'4190'
p2191
(lp2192
I7057390
aI17324
asS'4191'
p2193
(lp2194
I10593346
aI22332
asS'306'
p2195
(lp2196
I19324241
aI48
asS'307'
p2197
(lp2198
I19324289
aI56
asS'2486'
p2199
(lp2200
I24800067
aI772
asS'438'
p2201
(lp2202
I7156342
aI120
asS'439'
p2203
(lp2204
I7156462
aI131
asS'436'
p2205
(lp2206
I7156593
aI59
asS'437'
p2207
(lp2208
I7156652
aI81
asS'434'
p2209
(lp2210
I7156733
aI79
asS'435'
p2211
(lp2212
I7156812
aI631
asS'432'
p2213
(lp2214
I7157443
aI92
asS'433'
p2215
(lp2216
I7157535
aI105
asS'430'
p2217
(lp2218
I7157640
aI63
asS'431'
p2219
(lp2220
I7157703
aI63
asS'3809'
p2221
(lp2222
I7157766
aI9206
asS'3808'
p2223
(lp2224
I7166972
aI41917
asS'3805'
p2225
(lp2226
I7208889
aI32594
asS'3804'
p2227
(lp2228
I7241483
aI36643
asS'3807'
p2229
(lp2230
I7278126
aI10333
asS'3806'
p2231
(lp2232
I7288459
aI5337
asS'3801'
p2233
(lp2234
I7293796
aI48817
asS'3800'
p2235
(lp2236
I7342613
aI9256
asS'3803'
p2237
(lp2238
I7351869
aI37401
asS'3802'
p2239
(lp2240
I7389270
aI25909
asS'1630'
p2241
(lp2242
I27433033
aI496
asS'2975'
p2243
(lp2244
I19999179
aI148
asS'473'
p2245
(lp2246
I27629596
aI57
asS'2864'
p2247
(lp2248
I7415179
aI796
asS'558'
p2249
(lp2250
I1247919
aI528
asS'555'
p2251
(lp2252
I1249526
aI64
asS'554'
p2253
(lp2254
I1249590
aI81
asS'2289'
p2255
(lp2256
I16396207
aI1343
asS'1162'
p2257
(lp2258
I27554624
aI550
asS'49'
p2259
(lp2260
I27618649
aI86
asS'4174'
p2261
(lp2262
I7437843
aI34570
asS'4175'
p2263
(lp2264
I7472413
aI32648
asS'4176'
p2265
(lp2266
I7505061
aI28910
asS'4177'
p2267
(lp2268
I21008779
aI20266
asS'4170'
p2269
(lp2270
I7583975
aI12550
asS'4171'
p2271
(lp2272
I7596525
aI23388
asS'4172'
p2273
(lp2274
I7619913
aI25414
asS'4173'
p2275
(lp2276
I7645327
aI37720
asS'1961'
p2277
(lp2278
I7683047
aI577
asS'4178'
p2279
(lp2280
I7683624
aI26205
asS'4179'
p2281
(lp2282
I7709829
aI18025
asS'995'
p2283
(lp2284
I24823601
aI57
asS'2949'
p2285
(lp2286
I14904737
aI845
asS'994'
p2287
(lp2288
I24823658
aI65
asS'2948'
p2289
(lp2290
I14905582
aI655
asS'997'
p2291
(lp2292
I24823723
aI67
asS'996'
p2293
(lp2294
I24823790
aI79
asS'238'
p2295
(lp2296
I7764069
aI113
asS'239'
p2297
(lp2298
I7764182
aI139
asS'234'
p2299
(lp2300
I7796190
aI92
asS'235'
p2301
(lp2302
I7796282
aI49
asS'236'
p2303
(lp2304
I7796331
aI305
asS'237'
p2305
(lp2306
I7796636
aI72
asS'230'
p2307
(lp2308
I7796708
aI70
asS'231'
p2309
(lp2310
I7796778
aI85
asS'232'
p2311
(lp2312
I7796863
aI95
asS'233'
p2313
(lp2314
I7796958
aI93
asS'2944'
p2315
(lp2316
I14908463
aI809
asS'1963'
p2317
(lp2318
I19161141
aI136
asS'2228'
p2319
(lp2320
I7797732
aI519
asS'2229'
p2321
(lp2322
I7798251
aI751
asS'2226'
p2323
(lp2324
I7799002
aI419
asS'2227'
p2325
(lp2326
I7799421
aI493
asS'2224'
p2327
(lp2328
I7799914
aI254
asS'2225'
p2329
(lp2330
I7800168
aI175
asS'2222'
p2331
(lp2332
I7800343
aI168
asS'2223'
p2333
(lp2334
I7800511
aI214
asS'2220'
p2335
(lp2336
I7800725
aI674
asS'2221'
p2337
(lp2338
I7801399
aI161
asS'1'
p2339
(lp2340
I7801560
aI106
asS'146'
p2341
(lp2342
I7801666
aI497
asS'147'
p2343
(lp2344
I7802163
aI68
asS'144'
p2345
(lp2346
I7802231
aI705
asS'145'
p2347
(lp2348
I7802936
aI69
asS'142'
p2349
(lp2350
I7803005
aI66
asS'143'
p2351
(lp2352
I7803071
aI132
asS'140'
p2353
(lp2354
I7803203
aI65
asS'141'
p2355
(lp2356
I7803268
aI71
asS'999'
p2357
(lp2358
I24824436
aI62
asS'148'
p2359
(lp2360
I7803485
aI61
asS'149'
p2361
(lp2362
I7803546
aI171
asS'120'
p2363
(lp2364
I24824554
aI105
asS'2088'
p2365
(lp2366
I7816901
aI189
asS'2089'
p2367
(lp2368
I7817090
aI127
asS'121'
p2369
(lp2370
I24824659
aI56
asS'2082'
p2371
(lp2372
I7854538
aI798
asS'2083'
p2373
(lp2374
I7855336
aI699
asS'2080'
p2375
(lp2376
I7856035
aI645
asS'2081'
p2377
(lp2378
I7856680
aI799
asS'2086'
p2379
(lp2380
I7857479
aI150
asS'2087'
p2381
(lp2382
I7857629
aI112
asS'2084'
p2383
(lp2384
I7857741
aI277
asS'2085'
p2385
(lp2386
I7858018
aI129
asS'3342'
p2387
(lp2388
I7858147
aI38183
asS'2538'
p2389
(lp2390
I7896330
aI856
asS'2539'
p2391
(lp2392
I7897186
aI218
asS'3343'
p2393
(lp2394
I7897404
aI17321
asS'2532'
p2395
(lp2396
I7914725
aI137
asS'2533'
p2397
(lp2398
I7914862
aI193
asS'2530'
p2399
(lp2400
I7915055
aI179
asS'2531'
p2401
(lp2402
I7915234
aI140
asS'2536'
p2403
(lp2404
I7915374
aI689
asS'2537'
p2405
(lp2406
I7916063
aI753
asS'2534'
p2407
(lp2408
I7916816
aI1074
asS'2535'
p2409
(lp2410
I7917890
aI821
asS'2712'
p2411
(lp2412
I7918711
aI668
asS'2713'
p2413
(lp2414
I7919379
aI107
asS'2710'
p2415
(lp2416
I7919486
aI821
asS'2711'
p2417
(lp2418
I7920307
aI663
asS'2716'
p2419
(lp2420
I7920970
aI1058
asS'2717'
p2421
(lp2422
I7922028
aI667
asS'2714'
p2423
(lp2424
I7922695
aI600
asS'2715'
p2425
(lp2426
I7923295
aI709
asS'3346'
p2427
(lp2428
I7924004
aI41158
asS'2718'
p2429
(lp2430
I7965162
aI678
asS'2719'
p2431
(lp2432
I7965840
aI684
asS'3347'
p2433
(lp2434
I7966524
aI5645
asS'128'
p2435
(lp2436
I24825880
aI67
asS'3344'
p2437
(lp2438
I7999040
aI46453
asS'129'
p2439
(lp2440
I24825947
aI95
asS'3345'
p2441
(lp2442
I8048698
aI22377
asS'2671'
p2443
(lp2444
I27328572
aI165
asS'1832'
p2445
(lp2446
I8071075
aI139
asS'1833'
p2447
(lp2448
I8071214
aI108
asS'1830'
p2449
(lp2450
I8071322
aI186
asS'1831'
p2451
(lp2452
I8071508
aI160
asS'1836'
p2453
(lp2454
I8071668
aI529
asS'3798'
p2455
(lp2456
I218540
aI42415
asS'1834'
p2457
(lp2458
I8072591
aI689
asS'1835'
p2459
(lp2460
I8073280
aI494
asS'3795'
p2461
(lp2462
I8073774
aI12364
asS'3794'
p2463
(lp2464
I25681784
aI40805
asS'1838'
p2465
(lp2466
I8086815
aI151
asS'3796'
p2467
(lp2468
I1904927
aI21618
asS'3791'
p2469
(lp2470
I8087197
aI24778
asS'3790'
p2471
(lp2472
I8111975
aI12656
asS'137'
p2473
(lp2474
I23033316
aI88
asS'3792'
p2475
(lp2476
I8125176
aI8086
asS'2154'
p2477
(lp2478
I8133262
aI666
asS'2155'
p2479
(lp2480
I8133928
aI464
asS'939'
p2481
(lp2482
I8134392
aI67
asS'2157'
p2483
(lp2484
I2687831
aI159
asS'2150'
p2485
(lp2486
I8134505
aI469
asS'2151'
p2487
(lp2488
I8134974
aI637
asS'2152'
p2489
(lp2490
I8135611
aI732
asS'2153'
p2491
(lp2492
I8136343
aI734
asS'933'
p2493
(lp2494
I8137077
aI64
asS'932'
p2495
(lp2496
I8137141
aI99
asS'931'
p2497
(lp2498
I8137240
aI125
asS'930'
p2499
(lp2500
I8137365
aI78
asS'937'
p2501
(lp2502
I8137443
aI91
asS'936'
p2503
(lp2504
I8137534
aI69
asS'935'
p2505
(lp2506
I8137603
aI68
asS'934'
p2507
(lp2508
I8137671
aI57
asS'2829'
p2509
(lp2510
I21074438
aI928
asS'2356'
p2511
(lp2512
I20277470
aI504
asS'136'
p2513
(lp2514
I23033404
aI63
asS'3055'
p2515
(lp2516
I19782138
aI532
asS'1955'
p2517
(lp2518
I8138528
aI252
asS'1954'
p2519
(lp2520
I8138780
aI201
asS'1957'
p2521
(lp2522
I8138981
aI434
asS'1956'
p2523
(lp2524
I8139415
aI946
asS'1951'
p2525
(lp2526
I8140361
aI690
asS'1950'
p2527
(lp2528
I8141051
aI150
asS'1953'
p2529
(lp2530
I8141201
aI120
asS'1952'
p2531
(lp2532
I8141321
aI44
asS'2673'
p2533
(lp2534
I27329242
aI106
asS'1959'
p2535
(lp2536
I8141365
aI761
asS'1958'
p2537
(lp2538
I8142126
aI613
asS'3249'
p2539
(lp2540
I8142739
aI25129
asS'3248'
p2541
(lp2542
I8167868
aI33614
asS'3243'
p2543
(lp2544
I8202239
aI21161
asS'3242'
p2545
(lp2546
I8223400
aI17313
asS'3241'
p2547
(lp2548
I8240713
aI22858
asS'3240'
p2549
(lp2550
I8263571
aI28062
asS'3247'
p2551
(lp2552
I8291633
aI20677
asS'3246'
p2553
(lp2554
I8312310
aI7657
asS'3245'
p2555
(lp2556
I8319967
aI47190
asS'1990'
p2557
(lp2558
I6778315
aI106
asS'829'
p2559
(lp2560
I8399809
aI124
asS'828'
p2561
(lp2562
I8399933
aI204
asS'825'
p2563
(lp2564
I8400137
aI521
asS'824'
p2565
(lp2566
I8400658
aI583
asS'827'
p2567
(lp2568
I8401241
aI138
asS'826'
p2569
(lp2570
I8401379
aI90
asS'821'
p2571
(lp2572
I8401469
aI82
asS'820'
p2573
(lp2574
I8401551
aI53
asS'823'
p2575
(lp2576
I8401604
aI105
asS'822'
p2577
(lp2578
I8401709
aI272
asS'2284'
p2579
(lp2580
I16574364
aI184
asS'1993'
p2581
(lp2582
I6781695
aI185
asS'1483'
p2583
(lp2584
I8426215
aI280
asS'1482'
p2585
(lp2586
I8426495
aI409
asS'1481'
p2587
(lp2588
I8426904
aI66
asS'1480'
p2589
(lp2590
I8426970
aI97
asS'1487'
p2591
(lp2592
I8427067
aI864
asS'1486'
p2593
(lp2594
I8427931
aI492
asS'1485'
p2595
(lp2596
I8428423
aI657
asS'1484'
p2597
(lp2598
I8429080
aI477
asS'3306'
p2599
(lp2600
I8429557
aI12590
asS'3307'
p2601
(lp2602
I8442147
aI37660
asS'1489'
p2603
(lp2604
I8479807
aI515
asS'1488'
p2605
(lp2606
I8480322
aI620
asS'3302'
p2607
(lp2608
I8480942
aI18840
asS'3303'
p2609
(lp2610
I8499782
aI32866
asS'3300'
p2611
(lp2612
I8532648
aI7337
asS'3301'
p2613
(lp2614
I8539985
aI38964
asS'797'
p2615
(lp2616
I8578949
aI62
asS'796'
p2617
(lp2618
I8579011
aI1055
asS'795'
p2619
(lp2620
I8580066
aI99
asS'794'
p2621
(lp2622
I8580165
aI385
asS'793'
p2623
(lp2624
I8580550
aI54
asS'792'
p2625
(lp2626
I8580604
aI173
asS'791'
p2627
(lp2628
I8580777
aI70
asS'790'
p2629
(lp2630
I8580847
aI50
asS'1719'
p2631
(lp2632
I8581486
aI738
asS'1718'
p2633
(lp2634
I8582224
aI335
asS'2145'
p2635
(lp2636
I10489145
aI1000
asS'799'
p2637
(lp2638
I8582907
aI349
asS'798'
p2639
(lp2640
I8583256
aI74
asS'612'
p2641
(lp2642
I14923816
aI82
asS'2144'
p2643
(lp2644
I10490145
aI787
asS'613'
p2645
(lp2646
I14923898
aI52
asS'2143'
p2647
(lp2648
I10490932
aI202
asS'610'
p2649
(lp2650
I14923950
aI52
asS'2142'
p2651
(lp2652
I10491134
aI977
asS'1139'
p2653
(lp2654
I8599997
aI69
asS'1138'
p2655
(lp2656
I8600066
aI59
asS'2141'
p2657
(lp2658
I10492111
aI523
asS'1133'
p2659
(lp2660
I8600405
aI98
asS'1132'
p2661
(lp2662
I8600503
aI98
asS'1131'
p2663
(lp2664
I8600601
aI62
asS'1130'
p2665
(lp2666
I8600663
aI59
asS'1137'
p2667
(lp2668
I8600722
aI54
asS'1136'
p2669
(lp2670
I8600776
aI73
asS'1135'
p2671
(lp2672
I8600849
aI1389
asS'1134'
p2673
(lp2674
I8602238
aI774
asS'920'
p2675
(lp2676
I10493252
aI104
asS'614'
p2677
(lp2678
I14925781
aI69
asS'921'
p2679
(lp2680
I10493356
aI82
asS'476'
p2681
(lp2682
I20354631
aI74
asS'615'
p2683
(lp2684
I14925850
aI641
asS'3142'
p2685
(lp2686
I21071722
aI1005
asS'3018'
p2687
(lp2688
I8647787
aI886
asS'3019'
p2689
(lp2690
I1206777
aI78
asS'1994'
p2691
(lp2692
I6840217
aI132
asS'3012'
p2693
(lp2694
I8648774
aI618
asS'3013'
p2695
(lp2696
I1244779
aI654
asS'3010'
p2697
(lp2698
I8649500
aI473
asS'3011'
p2699
(lp2700
I19096494
aI680
asS'3016'
p2701
(lp2702
I8650042
aI522
asS'3017'
p2703
(lp2704
I8650564
aI431
asS'3014'
p2705
(lp2706
I8650995
aI838
asS'3015'
p2707
(lp2708
I19183819
aI1228
asS'519'
p2709
(lp2710
I8651949
aI85
asS'518'
p2711
(lp2712
I8652034
aI84
asS'926'
p2713
(lp2714
I10493700
aI53
asS'1009'
p2715
(lp2716
I8652450
aI285
asS'1008'
p2717
(lp2718
I8652735
aI395
asS'511'
p2719
(lp2720
I1294740
aI78
asS'510'
p2721
(lp2722
I1295000
aI80
asS'513'
p2723
(lp2724
I1302766
aI54
asS'512'
p2725
(lp2726
I1303130
aI70
asS'1003'
p2727
(lp2728
I1304639
aI1233
asS'514'
p2729
(lp2730
I1306445
aI60
asS'1001'
p2731
(lp2732
I876997
aI586
asS'1000'
p2733
(lp2734
I8654542
aI56
asS'4189'
p2735
(lp2736
I6814511
aI25706
asS'1226'
p2737
(lp2738
I1375673
aI482
asS'621'
p2739
(lp2740
I1377543
aI76
asS'1224'
p2741
(lp2742
I1377679
aI309
asS'1223'
p2743
(lp2744
I1425691
aI746
asS'1222'
p2745
(lp2746
I1511617
aI114
asS'1221'
p2747
(lp2748
I1512430
aI75
asS'1220'
p2749
(lp2750
I1513443
aI75
asS'4181'
p2751
(lp2752
I8655741
aI23797
asS'4180'
p2753
(lp2754
I8679538
aI25204
asS'4183'
p2755
(lp2756
I7730462
aI32385
asS'4182'
p2757
(lp2758
I5531146
aI31647
asS'4185'
p2759
(lp2760
I8704948
aI47958
asS'4184'
p2761
(lp2762
I8752906
aI36542
asS'1229'
p2763
(lp2764
I8789448
aI71
asS'4186'
p2765
(lp2766
I3115919
aI39515
asS'2882'
p2767
(lp2768
I8826302
aI908
asS'2883'
p2769
(lp2770
I8827210
aI918
asS'2880'
p2771
(lp2772
I8828128
aI465
asS'2881'
p2773
(lp2774
I8828593
aI321
asS'2886'
p2775
(lp2776
I8828914
aI724
asS'2887'
p2777
(lp2778
I8829638
aI1082
asS'2884'
p2779
(lp2780
I8830720
aI702
asS'2885'
p2781
(lp2782
I8831422
aI571
asS'2888'
p2783
(lp2784
I8831993
aI592
asS'2889'
p2785
(lp2786
I8832585
aI975
asS'2'
p2787
(lp2788
I8881913
aI84
asS'3878'
p2789
(lp2790
I8881997
aI14115
asS'3879'
p2791
(lp2792
I8896112
aI49839
asS'3870'
p2793
(lp2794
I8946408
aI37237
asS'3871'
p2795
(lp2796
I8983645
aI29779
asS'3872'
p2797
(lp2798
I9013424
aI5879
asS'3873'
p2799
(lp2800
I9019303
aI38978
asS'3874'
p2801
(lp2802
I9058281
aI38890
asS'3875'
p2803
(lp2804
I9097171
aI32223
asS'3876'
p2805
(lp2806
I9129394
aI29351
asS'3877'
p2807
(lp2808
I9158745
aI29186
asS'1286'
p2809
(lp2810
I9187931
aI117
asS'1714'
p2811
(lp2812
I27628435
aI180
asS'2958'
p2813
(lp2814
I24609779
aI571
asS'11'
p2815
(lp2816
I9188048
aI211
asS'10'
p2817
(lp2818
I9188259
aI64
asS'13'
p2819
(lp2820
I9188323
aI64
asS'12'
p2821
(lp2822
I9188387
aI95
asS'15'
p2823
(lp2824
I9188482
aI58
asS'14'
p2825
(lp2826
I9188540
aI211
asS'17'
p2827
(lp2828
I9188751
aI66
asS'16'
p2829
(lp2830
I9188817
aI63
asS'19'
p2831
(lp2832
I9188880
aI64
asS'18'
p2833
(lp2834
I9188944
aI92
asS'1922'
p2835
(lp2836
I10616236
aI390
asS'1598'
p2837
(lp2838
I24805362
aI115
asS'1923'
p2839
(lp2840
I10616626
aI414
asS'2959'
p2841
(lp2842
I24610350
aI642
asS'1924'
p2843
(lp2844
I10617040
aI757
asS'3273'
p2845
(lp2846
I18071398
aI18772
asS'3904'
p2847
(lp2848
I9250289
aI13516
asS'3905'
p2849
(lp2850
I9263805
aI32690
asS'3906'
p2851
(lp2852
I9296495
aI18881
asS'3907'
p2853
(lp2854
I9315376
aI3535
asS'3900'
p2855
(lp2856
I9318911
aI34915
asS'1926'
p2857
(lp2858
I10618386
aI606
asS'3902'
p2859
(lp2860
I9358821
aI10921
asS'3903'
p2861
(lp2862
I9369742
aI41784
asS'928'
p2863
(lp2864
I10489048
aI56
asS'1927'
p2865
(lp2866
I10618992
aI564
asS'3908'
p2867
(lp2868
I9442602
aI24624
asS'3909'
p2869
(lp2870
I9467226
aI16961
asS'3600'
p2871
(lp2872
I20097231
aI22707
asS'4167'
p2873
(lp2874
I9503801
aI7369
asS'4166'
p2875
(lp2876
I9511170
aI34964
asS'4165'
p2877
(lp2878
I9546134
aI14527
asS'4164'
p2879
(lp2880
I9560661
aI26503
asS'4163'
p2881
(lp2882
I9587164
aI11924
asS'4162'
p2883
(lp2884
I9599088
aI19007
asS'4161'
p2885
(lp2886
I9618095
aI33513
asS'4160'
p2887
(lp2888
I9651608
aI33875
asS'4169'
p2889
(lp2890
I9686206
aI30078
asS'4168'
p2891
(lp2892
I9716284
aI43301
asS'1471'
p2893
(lp2894
I14983845
aI535
asS'201'
p2895
(lp2896
I9801964
aI93
asS'200'
p2897
(lp2898
I9802057
aI100
asS'203'
p2899
(lp2900
I9802157
aI83
asS'202'
p2901
(lp2902
I9802240
aI464
asS'205'
p2903
(lp2904
I9802704
aI331
asS'204'
p2905
(lp2906
I9803035
aI67
asS'207'
p2907
(lp2908
I9803102
aI68
asS'206'
p2909
(lp2910
I9803170
aI48
asS'209'
p2911
(lp2912
I9803218
aI83
asS'208'
p2913
(lp2914
I9803301
aI100
asS'830'
p2915
(lp2916
I10622892
aI100
asS'1352'
p2917
(lp2918
I25908230
aI302
asS'1573'
p2919
(lp2920
I9831102
aI119
asS'831'
p2921
(lp2922
I10622992
aI92
asS'1572'
p2923
(lp2924
I9859878
aI852
asS'836'
p2925
(lp2926
I10623084
aI90
asS'1571'
p2927
(lp2928
I9867976
aI581
asS'837'
p2929
(lp2930
I10623174
aI77
asS'2239'
p2931
(lp2932
I9882761
aI235
asS'2238'
p2933
(lp2934
I9882996
aI81
asS'1570'
p2935
(lp2936
I9883077
aI525
asS'834'
p2937
(lp2938
I10623251
aI102
asS'998'
p2939
(lp2940
I24824498
aI56
asS'2231'
p2941
(lp2942
I9912704
aI501
asS'2230'
p2943
(lp2944
I6499642
aI679
asS'2233'
p2945
(lp2946
I9913338
aI2076
asS'2232'
p2947
(lp2948
I9915414
aI963
asS'2235'
p2949
(lp2950
I9916377
aI136
asS'2234'
p2951
(lp2952
I9916513
aI132
asS'2237'
p2953
(lp2954
I9916645
aI56
asS'2236'
p2955
(lp2956
I6533764
aI268
asS'1575'
p2957
(lp2958
I9916818
aI104
asS'1574'
p2959
(lp2960
I9917227
aI105
asS'3576'
p2961
(lp2962
I25471346
aI31253
asS'2185'
p2963
(lp2964
I9954391
aI442
asS'3498'
p2965
(lp2966
I9954833
aI43664
asS'3499'
p2967
(lp2968
I9998497
aI8778
asS'3496'
p2969
(lp2970
I10007275
aI47039
asS'3497'
p2971
(lp2972
I10054314
aI4443
asS'3494'
p2973
(lp2974
I10058757
aI21360
asS'3495'
p2975
(lp2976
I6759906
aI18332
asS'3492'
p2977
(lp2978
I10080906
aI11668
asS'3493'
p2979
(lp2980
I10092574
aI37135
asS'3490'
p2981
(lp2982
I10129709
aI17002
asS'3491'
p2983
(lp2984
I17529055
aI35945
asS'2095'
p2985
(lp2986
I10197316
aI583
asS'2094'
p2987
(lp2988
I10197899
aI595
asS'2097'
p2989
(lp2990
I10198494
aI741
asS'2096'
p2991
(lp2992
I10199235
aI963
asS'2091'
p2993
(lp2994
I10200198
aI743
asS'3659'
p2995
(lp2996
I6871815
aI7632
asS'2093'
p2997
(lp2998
I10201210
aI691
asS'2092'
p2999
(lp3000
I10201901
aI974
asS'3654'
p3001
(lp3002
I10202875
aI9007
asS'3655'
p3003
(lp3004
I10211882
aI40204
asS'3656'
p3005
(lp3006
I10252086
aI23060
asS'3657'
p3007
(lp3008
I10275146
aI45430
asS'3650'
p3009
(lp3010
I3082309
aI33610
asS'2189'
p3011
(lp3012
I832619
aI964
asS'3652'
p3013
(lp3014
I10320993
aI38675
asS'3653'
p3015
(lp3016
I10359668
aI44034
asS'2525'
p3017
(lp3018
I10403702
aI804
asS'2524'
p3019
(lp3020
I10404506
aI604
asS'2527'
p3021
(lp3022
I10405110
aI682
asS'2526'
p3023
(lp3024
I7108709
aI737
asS'2521'
p3025
(lp3026
I10406817
aI197
asS'2520'
p3027
(lp3028
I10407014
aI235
asS'2523'
p3029
(lp3030
I10407249
aI559
asS'2522'
p3031
(lp3032
I10407808
aI812
asS'1303'
p3033
(lp3034
I15008169
aI120
asS'2529'
p3035
(lp3036
I10408620
aI187
asS'2528'
p3037
(lp3038
I10408807
aI185
asS'2709'
p3039
(lp3040
I10439437
aI737
asS'2708'
p3041
(lp3042
I10440174
aI481
asS'2705'
p3043
(lp3044
I10440655
aI877
asS'2704'
p3045
(lp3046
I10441532
aI479
asS'2707'
p3047
(lp3048
I10442011
aI613
asS'2706'
p3049
(lp3050
I10442624
aI321
asS'2701'
p3051
(lp3052
I10442945
aI963
asS'2700'
p3053
(lp3054
I10443908
aI523
asS'2703'
p3055
(lp3056
I10444431
aI750
asS'2702'
p3057
(lp3058
I10445181
aI860
asS'1829'
p3059
(lp3060
I10482430
aI978
asS'1828'
p3061
(lp3062
I10483408
aI575
asS'1825'
p3063
(lp3064
I10484869
aI857
asS'1824'
p3065
(lp3066
I10485726
aI1073
asS'1827'
p3067
(lp3068
I10486799
aI1101
asS'1826'
p3069
(lp3070
I10487900
aI526
asS'1821'
p3071
(lp3072
I10488426
aI186
asS'1820'
p3073
(lp3074
I10488612
aI130
asS'1823'
p3075
(lp3076
I10488742
aI146
asS'1822'
p3077
(lp3078
I10488888
aI160
asS'2147'
p3079
(lp3080
I727828
aI706
asS'2146'
p3081
(lp3082
I823872
aI721
asS'2413'
p3083
(lp3084
I8582559
aI348
asS'2412'
p3085
(lp3086
I8583765
aI202
asS'2415'
p3087
(lp3088
I8584440
aI225
asS'2414'
p3089
(lp3090
I8585524
aI114
asS'2417'
p3091
(lp3092
I8600125
aI94
asS'2140'
p3093
(lp3094
I10492634
aI618
asS'2419'
p3095
(lp3096
I8603012
aI146
asS'2418'
p3097
(lp3098
I8604903
aI145
asS'922'
p3099
(lp3100
I10493438
aI63
asS'923'
p3101
(lp3102
I10493501
aI54
asS'924'
p3103
(lp3104
I10493555
aI49
asS'925'
p3105
(lp3106
I10493604
aI96
asS'2149'
p3107
(lp3108
I8652118
aI332
asS'2148'
p3109
(lp3110
I1656466
aI590
asS'2411'
p3111
(lp3112
I10593062
aI284
asS'1920'
p3113
(lp3114
I10615678
aI164
asS'1921'
p3115
(lp3116
I10615842
aI394
asS'3274'
p3117
(lp3118
I9189572
aI12144
asS'3275'
p3119
(lp3120
I9201716
aI40661
asS'3272'
p3121
(lp3122
I9242481
aI7441
asS'1925'
p3123
(lp3124
I10617797
aI589
asS'3270'
p3125
(lp3126
I9353826
aI4995
asS'3271'
p3127
(lp3128
I9412367
aI30235
asS'1928'
p3129
(lp3130
I10619556
aI957
asS'1929'
p3131
(lp3132
I10620513
aI740
asS'475'
p3133
(lp3134
I27625706
aI72
asS'3278'
p3135
(lp3136
I9760306
aI41201
asS'3279'
p3137
(lp3138
I8789588
aI36237
asS'3474'
p3139
(lp3140
I6387624
aI46658
asS'3475'
p3141
(lp3142
I6434282
aI41426
asS'3476'
p3143
(lp3144
I9803762
aI9815
asS'3477'
p3145
(lp3146
I9831221
aI28657
asS'3470'
p3147
(lp3148
I6534032
aI37254
asS'3471'
p3149
(lp3150
I9868557
aI14204
asS'3472'
p3151
(lp3152
I9883602
aI29102
asS'3473'
p3153
(lp3154
I6637541
aI24660
asS'838'
p3155
(lp3156
I10623461
aI71
asS'839'
p3157
(lp3158
I10623532
aI88
asS'3478'
p3159
(lp3160
I10623620
aI17886
asS'3479'
p3161
(lp3162
I10641506
aI28326
asS'1365'
p3163
(lp3164
I27630008
aI852
asS'3'
p3165
(lp3166
I10669832
aI82
asS'359'
p3167
(lp3168
I26578310
aI52
asS'3332'
p3169
(lp3170
I10670050
aI36564
asS'3319'
p3171
(lp3172
I10744799
aI22377
asS'3318'
p3173
(lp3174
I10767176
aI12715
asS'2594'
p3175
(lp3176
I16633790
aI593
asS'3311'
p3177
(lp3178
I10779941
aI1141
asS'3310'
p3179
(lp3180
I10781082
aI20274
asS'3313'
p3181
(lp3182
I10801356
aI40550
asS'3312'
p3183
(lp3184
I10841906
aI18501
asS'3315'
p3185
(lp3186
I10860407
aI14109
asS'3314'
p3187
(lp3188
I7420138
aI4797
asS'3317'
p3189
(lp3190
I10936564
aI29167
asS'3316'
p3191
(lp3192
I10874752
aI2508
asS'784'
p3193
(lp3194
I10877260
aI59
asS'785'
p3195
(lp3196
I10877319
aI129
asS'786'
p3197
(lp3198
I10877448
aI93
asS'787'
p3199
(lp3200
I10877541
aI57
asS'780'
p3201
(lp3202
I10877598
aI130
asS'781'
p3203
(lp3204
I10877728
aI61
asS'782'
p3205
(lp3206
I10877789
aI61
asS'783'
p3207
(lp3208
I10877850
aI55
asS'1726'
p3209
(lp3210
I10877905
aI1407
asS'1727'
p3211
(lp3212
I10879312
aI1038
asS'1724'
p3213
(lp3214
I10880350
aI599
asS'1725'
p3215
(lp3216
I10880949
aI917
asS'788'
p3217
(lp3218
I10881866
aI110
asS'789'
p3219
(lp3220
I10881976
aI58
asS'1720'
p3221
(lp3222
I10882034
aI280
asS'1721'
p3223
(lp3224
I10882314
aI738
asS'1350'
p3225
(lp3226
I25908953
aI1189
asS'468'
p3227
(lp3228
I25907812
aI86
asS'2439'
p3229
(lp3230
I10929181
aI567
asS'60'
p3231
(lp3232
I10929748
aI102
asS'61'
p3233
(lp3234
I10929850
aI70
asS'62'
p3235
(lp3236
I10929920
aI97
asS'2438'
p3237
(lp3238
I4018164
aI1164
asS'64'
p3239
(lp3240
I10930454
aI59
asS'65'
p3241
(lp3242
I10930513
aI140
asS'66'
p3243
(lp3244
I10930653
aI90
asS'3002'
p3245
(lp3246
I475008
aI820
asS'68'
p3247
(lp3248
I10930803
aI604
asS'69'
p3249
(lp3250
I10931407
aI187
asS'3009'
p3251
(lp3252
I10931594
aI406
asS'3008'
p3253
(lp3254
I10932000
aI768
asS'1371'
p3255
(lp3256
I10932768
aI108
asS'1588'
p3257
(lp3258
I10932876
aI585
asS'1589'
p3259
(lp3260
I10933461
aI872
asS'1370'
p3261
(lp3262
I10934333
aI92
asS'1582'
p3263
(lp3264
I10934425
aI82
asS'1583'
p3265
(lp3266
I10934507
aI110
asS'1580'
p3267
(lp3268
I10934617
aI110
asS'1581'
p3269
(lp3270
I10934727
aI128
asS'1586'
p3271
(lp3272
I10934855
aI264
asS'1373'
p3273
(lp3274
I10935119
aI223
asS'1584'
p3275
(lp3276
I10935342
aI123
asS'1585'
p3277
(lp3278
I10935465
aI105
asS'2433'
p3279
(lp3280
I10935570
aI816
asS'1038'
p3281
(lp3282
I10936386
aI87
asS'1372'
p3283
(lp3284
I875574
aI90
asS'508'
p3285
(lp3286
I10965731
aI61
asS'2432'
p3287
(lp3288
I4638196
aI155
asS'1032'
p3289
(lp3290
I10965854
aI890
asS'1375'
p3291
(lp3292
I1105927
aI70
asS'1030'
p3293
(lp3294
I10966836
aI500
asS'505'
p3295
(lp3296
I10967336
aI68
asS'502'
p3297
(lp3298
I10967404
aI61
asS'503'
p3299
(lp3300
I10967465
aI105
asS'500'
p3301
(lp3302
I10967570
aI57
asS'402'
p3303
(lp3304
I1514555
aI47
asS'1212'
p3305
(lp3306
I10967682
aI326
asS'1213'
p3307
(lp3308
I10968008
aI254
asS'1210'
p3309
(lp3310
I1023436
aI330
asS'633'
p3311
(lp3312
I10968419
aI172
asS'1216'
p3313
(lp3314
I10968591
aI505
asS'1377'
p3315
(lp3316
I1214431
aI79
asS'636'
p3317
(lp3318
I10969183
aI58
asS'637'
p3319
(lp3320
I10969241
aI768
asS'638'
p3321
(lp3322
I10970009
aI98
asS'639'
p3323
(lp3324
I10970107
aI82
asS'1218'
p3325
(lp3326
I10970189
aI77
asS'927'
p3327
(lp3328
I10493753
aI147
asS'989'
p3329
(lp3330
I26979017
aI62
asS'2416'
p3331
(lp3332
I10971243
aI171
asS'2899'
p3333
(lp3334
I10986445
aI569
asS'1728'
p3335
(lp3336
I10987014
aI779
asS'2895'
p3337
(lp3338
I10987793
aI438
asS'2894'
p3339
(lp3340
I10988231
aI611
asS'2897'
p3341
(lp3342
I10988842
aI965
asS'1729'
p3343
(lp3344
I10989807
aI214
asS'2891'
p3345
(lp3346
I10990021
aI503
asS'2890'
p3347
(lp3348
I10990524
aI820
asS'2893'
p3349
(lp3350
I10991344
aI1046
asS'2892'
p3351
(lp3352
I10992390
aI686
asS'1106'
p3353
(lp3354
I10993076
aI55
asS'1107'
p3355
(lp3356
I10993131
aI44
asS'1104'
p3357
(lp3358
I10993175
aI83
asS'1105'
p3359
(lp3360
I10993258
aI62
asS'1102'
p3361
(lp3362
I10993320
aI64
asS'1103'
p3363
(lp3364
I10993384
aI59
asS'1100'
p3365
(lp3366
I10993443
aI121
asS'1101'
p3367
(lp3368
I10993564
aI126
asS'1458'
p3369
(lp3370
I11010053
aI407
asS'1459'
p3371
(lp3372
I11010460
aI327
asS'1108'
p3373
(lp3374
I11010787
aI978
asS'1109'
p3375
(lp3376
I11011765
aI348
asS'4080'
p3377
(lp3378
I18507085
aI49399
asS'4081'
p3379
(lp3380
I12684636
aI18660
asS'3869'
p3381
(lp3382
I11082102
aI34202
asS'3868'
p3383
(lp3384
I11116304
aI48115
asS'4084'
p3385
(lp3386
I11164419
aI50246
asS'4085'
p3387
(lp3388
I11214665
aI37056
asS'4086'
p3389
(lp3390
I11251721
aI12896
asS'4087'
p3391
(lp3392
I11264617
aI45864
asS'3863'
p3393
(lp3394
I11310481
aI18849
asS'3862'
p3395
(lp3396
I11012113
aI34998
asS'3861'
p3397
(lp3398
I11329908
aI37640
asS'3860'
p3399
(lp3400
I11367548
aI32273
asS'3867'
p3401
(lp3402
I11399821
aI11109
asS'3866'
p3403
(lp3404
I11410930
aI29013
asS'3865'
p3405
(lp3406
I11439943
aI27178
asS'1723'
p3407
(lp3408
I11467121
aI499
asS'1894'
p3409
(lp3410
I20352803
aI219
asS'322'
p3411
(lp3412
I24265668
aI665
asS'3837'
p3413
(lp3414
I11509790
aI10850
asS'1895'
p3415
(lp3416
I20353022
aI195
asS'1577'
p3417
(lp3418
I9913205
aI133
asS'323'
p3419
(lp3420
I24266333
aI87
asS'1977'
p3421
(lp3422
I2994492
aI563
asS'1890'
p3423
(lp3424
I20353803
aI828
asS'3732'
p3425
(lp3426
I15099302
aI14318
asS'1892'
p3427
(lp3428
I20354705
aI944
asS'466'
p3429
(lp3430
I13054930
aI69
asS'1576'
p3431
(lp3432
I9916701
aI117
asS'320'
p3433
(lp3434
I24266420
aI554
asS'3917'
p3435
(lp3436
I11650806
aI18390
asS'3916'
p3437
(lp3438
I15944127
aI25566
asS'3915'
p3439
(lp3440
I11669497
aI40213
asS'3914'
p3441
(lp3442
I11709710
aI13660
asS'3913'
p3443
(lp3444
I11723370
aI11442
asS'3912'
p3445
(lp3446
I11734812
aI35332
asS'3911'
p3447
(lp3448
I11770144
aI36322
asS'3910'
p3449
(lp3450
I16244473
aI8274
asS'3147'
p3451
(lp3452
I21076160
aI843
asS'3919'
p3453
(lp3454
I11807235
aI42220
asS'3918'
p3455
(lp3456
I11849455
aI18500
asS'2247'
p3457
(lp3458
I24822103
aI704
asS'1636'
p3459
(lp3460
I27435535
aI597
asS'4152'
p3461
(lp3462
I1468735
aI42882
asS'4153'
p3463
(lp3464
I11896584
aI13469
asS'4150'
p3465
(lp3466
I11910053
aI41259
asS'4151'
p3467
(lp3468
I11951312
aI29415
asS'4156'
p3469
(lp3470
I11980727
aI39584
asS'4157'
p3471
(lp3472
I12020311
aI25433
asS'4154'
p3473
(lp3474
I12045744
aI20727
asS'4155'
p3475
(lp3476
I10558765
aI34297
asS'4158'
p3477
(lp3478
I12072671
aI39380
asS'4159'
p3479
(lp3480
I12112051
aI43200
asS'3071'
p3481
(lp3482
I12155437
aI696
asS'216'
p3483
(lp3484
I12172880
aI72
asS'217'
p3485
(lp3486
I12172952
aI44
asS'214'
p3487
(lp3488
I12172996
aI91
asS'215'
p3489
(lp3490
I12173087
aI105
asS'212'
p3491
(lp3492
I12173192
aI56
asS'213'
p3493
(lp3494
I12173248
aI76
asS'210'
p3495
(lp3496
I12173324
aI117
asS'211'
p3497
(lp3498
I12173441
aI67
asS'1186'
p3499
(lp3500
I27540522
aI366
asS'218'
p3501
(lp3502
I12180035
aI68
asS'219'
p3503
(lp3504
I12180103
aI48
asS'578'
p3505
(lp3506
I25753548
aI88
asS'957'
p3507
(lp3508
I20359560
aI76
asS'956'
p3509
(lp3510
I20359636
aI70
asS'462'
p3511
(lp3512
I25910407
aI811
asS'4'
p3513
(lp3514
I12201074
aI64
asS'324'
p3515
(lp3516
I24268093
aI67
asS'3073'
p3517
(lp3518
I24608857
aI758
asS'3489'
p3519
(lp3520
I12201138
aI27524
asS'3488'
p3521
(lp3522
I12228662
aI21764
asS'3182'
p3523
(lp3524
I26082644
aI900
asS'3481'
p3525
(lp3526
I12250426
aI35582
asS'3480'
p3527
(lp3528
I12286008
aI50793
asS'3483'
p3529
(lp3530
I18821181
aI1091
asS'3482'
p3531
(lp3532
I12356945
aI2409
asS'3485'
p3533
(lp3534
I12359354
aI24203
asS'3484'
p3535
(lp3536
I18830553
aI37635
asS'3487'
p3537
(lp3538
I12384438
aI7059
asS'3486'
p3539
(lp3540
I12391497
aI41043
asS'929'
p3541
(lp3542
I10489104
aI41
asS'325'
p3543
(lp3544
I24268160
aI92
asS'3649'
p3545
(lp3546
I12432540
aI13608
asS'3648'
p3547
(lp3548
I12446148
aI1648
asS'3647'
p3549
(lp3550
I13467816
aI3921
asS'3646'
p3551
(lp3552
I12448536
aI15550
asS'3645'
p3553
(lp3554
I12464086
aI30888
asS'3644'
p3555
(lp3556
I12494974
aI29455
asS'3643'
p3557
(lp3558
I12524429
aI27125
asS'3642'
p3559
(lp3560
I12551554
aI40430
asS'3641'
p3561
(lp3562
I12591984
aI2807
asS'3640'
p3563
(lp3564
I12594791
aI25795
asS'2550'
p3565
(lp3566
I12620586
aI246
asS'2551'
p3567
(lp3568
I12620832
aI160
asS'2552'
p3569
(lp3570
I12620992
aI199
asS'2553'
p3571
(lp3572
I12621191
aI186
asS'2554'
p3573
(lp3574
I12621377
aI742
asS'2555'
p3575
(lp3576
I12622119
aI667
asS'2556'
p3577
(lp3578
I12622786
aI699
asS'2557'
p3579
(lp3580
I12623485
aI555
asS'2558'
p3581
(lp3582
I12624040
aI373
asS'2559'
p3583
(lp3584
I12624413
aI536
asS'3595'
p3585
(lp3586
I25648574
aI27935
asS'3007'
p3587
(lp3588
I12624949
aI60
asS'2396'
p3589
(lp3590
I12625009
aI1141
asS'2397'
p3591
(lp3592
I12626150
aI72
asS'2394'
p3593
(lp3594
I12626222
aI240
asS'63'
p3595
(lp3596
I10930017
aI437
asS'2392'
p3597
(lp3598
I12626825
aI157
asS'2393'
p3599
(lp3600
I12626982
aI254
asS'2390'
p3601
(lp3602
I12627236
aI786
asS'2391'
p3603
(lp3604
I12628022
aI273
asS'3022'
p3605
(lp3606
I21071051
aI671
asS'3001'
p3607
(lp3608
I12628295
aI865
asS'2398'
p3609
(lp3610
I12676682
aI742
asS'2399'
p3611
(lp3612
I12677424
aI454
asS'2778'
p3613
(lp3614
I12677878
aI86
asS'2779'
p3615
(lp3616
I12677964
aI390
asS'3003'
p3617
(lp3618
I12678354
aI535
asS'2770'
p3619
(lp3620
I12681234
aI465
asS'2771'
p3621
(lp3622
I12681699
aI720
asS'2772'
p3623
(lp3624
I12682419
aI431
asS'67'
p3625
(lp3626
I10930743
aI60
asS'2774'
p3627
(lp3628
I12682988
aI58
asS'2775'
p3629
(lp3630
I12683046
aI150
asS'2776'
p3631
(lp3632
I12683196
aI770
asS'2777'
p3633
(lp3634
I12683966
aI670
asS'2802'
p3635
(lp3636
I25765482
aI710
asS'3076'
p3637
(lp3638
I24711524
aI1170
asS'2803'
p3639
(lp3640
I12704580
aI242
asS'2800'
p3641
(lp3642
I25766294
aI789
asS'312'
p3643
(lp3644
I17528431
aI59
asS'1858'
p3645
(lp3646
I12749738
aI367
asS'1859'
p3647
(lp3648
I12750105
aI345
asS'2801'
p3649
(lp3650
I25767083
aI707
asS'1850'
p3651
(lp3652
I12754880
aI187
asS'1851'
p3653
(lp3654
I12755067
aI119
asS'1852'
p3655
(lp3656
I12755186
aI423
asS'1853'
p3657
(lp3658
I12755609
aI800
asS'1854'
p3659
(lp3660
I12756409
aI964
asS'1855'
p3661
(lp3662
I12757373
aI809
asS'1856'
p3663
(lp3664
I12758182
aI1311
asS'1857'
p3665
(lp3666
I12759493
aI189
asS'2172'
p3667
(lp3668
I12759682
aI117
asS'2173'
p3669
(lp3670
I12759799
aI284
asS'2170'
p3671
(lp3672
I12760083
aI366
asS'2171'
p3673
(lp3674
I12760449
aI98
asS'919'
p3675
(lp3676
I12760547
aI56
asS'918'
p3677
(lp3678
I12760603
aI36
asS'2174'
p3679
(lp3680
I12760639
aI466
asS'2175'
p3681
(lp3682
I12761105
aI779
asS'915'
p3683
(lp3684
I12761884
aI42
asS'914'
p3685
(lp3686
I12761926
aI51
asS'917'
p3687
(lp3688
I12761977
aI31
asS'2805'
p3689
(lp3690
I5604276
aI416
asS'911'
p3691
(lp3692
I12762040
aI72
asS'910'
p3693
(lp3694
I12762112
aI66
asS'913'
p3695
(lp3696
I12762178
aI35
asS'912'
p3697
(lp3698
I12762213
aI98
asS'2604'
p3699
(lp3700
I12762311
aI598
asS'2605'
p3701
(lp3702
I12762909
aI576
asS'2606'
p3703
(lp3704
I12763485
aI876
asS'2607'
p3705
(lp3706
I12764361
aI159
asS'2600'
p3707
(lp3708
I12764520
aI158
asS'2601'
p3709
(lp3710
I12764678
aI245
asS'2602'
p3711
(lp3712
I12764923
aI150
asS'2603'
p3713
(lp3714
I12765073
aI498
asS'2608'
p3715
(lp3716
I12789089
aI145
asS'2609'
p3717
(lp3718
I12789234
aI428
asS'1933'
p3719
(lp3720
I12789662
aI736
asS'1932'
p3721
(lp3722
I12790398
aI598
asS'1931'
p3723
(lp3724
I12790996
aI625
asS'1930'
p3725
(lp3726
I12791621
aI828
asS'1937'
p3727
(lp3728
I12792449
aI551
asS'1936'
p3729
(lp3730
I12793000
aI1305
asS'1935'
p3731
(lp3732
I12794305
aI547
asS'1934'
p3733
(lp3734
I12794852
aI500
asS'3269'
p3735
(lp3736
I12795352
aI36175
asS'3268'
p3737
(lp3738
I12831527
aI10810
asS'1939'
p3739
(lp3740
I12842337
aI840
asS'1938'
p3741
(lp3742
I12843177
aI477
asS'1348'
p3743
(lp3744
I23553216
aI614
asS'1424'
p3745
(lp3746
I25771932
aI319
asS'847'
p3747
(lp3748
I12848775
aI162
asS'846'
p3749
(lp3750
I12848937
aI64
asS'3465'
p3751
(lp3752
I786710
aI22889
asS'844'
p3753
(lp3754
I12849074
aI63
asS'843'
p3755
(lp3756
I12849137
aI48
asS'842'
p3757
(lp3758
I12849185
aI95
asS'841'
p3759
(lp3760
I12849280
aI85
asS'840'
p3761
(lp3762
I12849365
aI83
asS'1090'
p3763
(lp3764
I19172055
aI86
asS'1426'
p3765
(lp3766
I25772850
aI554
asS'849'
p3767
(lp3768
I12849448
aI717
asS'848'
p3769
(lp3770
I12850165
aI374
asS'1632'
p3771
(lp3772
I27433924
aI685
asS'1429'
p3773
(lp3774
I25773404
aI384
asS'1428'
p3775
(lp3776
I25773788
aI375
asS'459'
p3777
(lp3778
I23553830
aI61
asS'1995'
p3779
(lp3780
I24609615
aI164
asS'1587'
p3781
(lp3782
I12853798
aI486
asS'3944'
p3783
(lp3784
I23736852
aI40010
asS'1739'
p3785
(lp3786
I12854740
aI551
asS'1738'
p3787
(lp3788
I12855291
aI771
asS'1731'
p3789
(lp3790
I12856062
aI193
asS'1730'
p3791
(lp3792
I12856255
aI175
asS'1733'
p3793
(lp3794
I12856430
aI164
asS'1732'
p3795
(lp3796
I12856594
aI149
asS'1735'
p3797
(lp3798
I26048638
aI406
asS'1734'
p3799
(lp3800
I12856808
aI246
asS'1737'
p3801
(lp3802
I12857054
aI106
asS'1736'
p3803
(lp3804
I12857160
aI176
asS'1039'
p3805
(lp3806
I10936473
aI91
asS'753'
p3807
(lp3808
I12861935
aI133
asS'3782'
p3809
(lp3810
I3001998
aI6541
asS'751'
p3811
(lp3812
I12862125
aI79
asS'750'
p3813
(lp3814
I12862204
aI64
asS'757'
p3815
(lp3816
I12862268
aI54
asS'756'
p3817
(lp3818
I12862322
aI92
asS'755'
p3819
(lp3820
I12862414
aI537
asS'754'
p3821
(lp3822
I12862951
aI55
asS'759'
p3823
(lp3824
I12863006
aI466
asS'509'
p3825
(lp3826
I10965792
aI62
asS'3780'
p3827
(lp3828
I12863725
aI1964
asS'3946'
p3829
(lp3830
I23788457
aI3451
asS'3070'
p3831
(lp3832
I11895981
aI603
asS'2405'
p3833
(lp3834
I3001008
aI171
asS'1597'
p3835
(lp3836
I12866299
aI92
asS'3781'
p3837
(lp3838
I3442729
aI22902
asS'3074'
p3839
(lp3840
I12447796
aI740
asS'3075'
p3841
(lp3842
I8124631
aI545
asS'1593'
p3843
(lp3844
I12868415
aI425
asS'507'
p3845
(lp3846
I10966744
aI92
asS'2954'
p3847
(lp3848
I12869712
aI470
asS'2955'
p3849
(lp3850
I12870182
aI478
asS'2956'
p3851
(lp3852
I12870660
aI491
asS'2957'
p3853
(lp3854
I12871151
aI937
asS'1599'
p3855
(lp3856
I12872088
aI104
asS'2951'
p3857
(lp3858
I10483983
aI886
asS'2952'
p3859
(lp3860
I12872248
aI197
asS'3787'
p3861
(lp3862
I3506275
aI34659
asS'1025'
p3863
(lp3864
I12872913
aI551
asS'1024'
p3865
(lp3866
I12873464
aI64
asS'1027'
p3867
(lp3868
I12873528
aI66
asS'1031'
p3869
(lp3870
I12873594
aI208
asS'1021'
p3871
(lp3872
I12873802
aI84
asS'3784'
p3873
(lp3874
I3546737
aI48440
asS'1023'
p3875
(lp3876
I12873967
aI91
asS'1022'
p3877
(lp3878
I12874058
aI91
asS'1036'
p3879
(lp3880
I12874149
aI66
asS'3785'
p3881
(lp3882
I12874215
aI11681
asS'1029'
p3883
(lp3884
I12885896
aI722
asS'1028'
p3885
(lp3886
I12886618
aI375
asS'1037'
p3887
(lp3888
I12886993
aI111
asS'1034'
p3889
(lp3890
I12887104
aI505
asS'501'
p3891
(lp3892
I10967627
aI55
asS'605'
p3893
(lp3894
I12918142
aI539
asS'604'
p3895
(lp3896
I12918681
aI44
asS'607'
p3897
(lp3898
I12918725
aI45
asS'606'
p3899
(lp3900
I12918770
aI118
asS'601'
p3901
(lp3902
I12918888
aI115
asS'600'
p3903
(lp3904
I12919003
aI91
asS'603'
p3905
(lp3906
I12919094
aI61
asS'602'
p3907
(lp3908
I12919155
aI38
asS'1205'
p3909
(lp3910
I12919193
aI158
asS'1204'
p3911
(lp3912
I12919351
aI187
asS'1207'
p3913
(lp3914
I12919538
aI70
asS'1206'
p3915
(lp3916
I12919608
aI813
asS'609'
p3917
(lp3918
I12920421
aI53
asS'608'
p3919
(lp3920
I5470551
aI82
asS'1203'
p3921
(lp3922
I12920934
aI61
asS'1202'
p3923
(lp3924
I12920995
aI71
asS'1211'
p3925
(lp3926
I12921066
aI218
asS'634'
p3927
(lp3928
I12964572
aI62
asS'1217'
p3929
(lp3930
I10969096
aI87
asS'3108'
p3931
(lp3932
I12964710
aI350
asS'1214'
p3933
(lp3934
I12965060
aI312
asS'3104'
p3935
(lp3936
I12965372
aI458
asS'3105'
p3937
(lp3938
I12965830
aI771
asS'3106'
p3939
(lp3940
I12966601
aI746
asS'1215'
p3941
(lp3942
I12967347
aI322
asS'3100'
p3943
(lp3944
I12967669
aI731
asS'3101'
p3945
(lp3946
I12968400
aI723
asS'3102'
p3947
(lp3948
I12969123
aI481
asS'3103'
p3949
(lp3950
I12969604
aI730
asS'1111'
p3951
(lp3952
I12970334
aI362
asS'1110'
p3953
(lp3954
I12970696
aI424
asS'1113'
p3955
(lp3956
I12971120
aI684
asS'1112'
p3957
(lp3958
I12971804
aI458
asS'1115'
p3959
(lp3960
I12972262
aI307
asS'1114'
p3961
(lp3962
I12972569
aI310
asS'1117'
p3963
(lp3964
I12972879
aI454
asS'1440'
p3965
(lp3966
I20661693
aI365
asS'1119'
p3967
(lp3968
I12974075
aI96
asS'1118'
p3969
(lp3970
I12974171
aI88
asS'1351'
p3971
(lp3972
I25908532
aI421
asS'1449'
p3973
(lp3974
I12974342
aI58
asS'1448'
p3975
(lp3976
I12974400
aI101
asS'4093'
p3977
(lp3978
I12974501
aI16383
asS'4092'
p3979
(lp3980
I12990884
aI39880
asS'4091'
p3981
(lp3982
I13030764
aI24166
asS'4090'
p3983
(lp3984
I10453972
aI28458
asS'4097'
p3985
(lp3986
I13054999
aI12972
asS'4096'
p3987
(lp3988
I13067971
aI4741
asS'4095'
p3989
(lp3990
I13072712
aI50089
asS'4094'
p3991
(lp3992
I13122801
aI14791
asS'461'
p3993
(lp3994
I25910142
aI117
asS'4099'
p3995
(lp3996
I13137660
aI38941
asS'4098'
p3997
(lp3998
I13176601
aI17204
asS'1356'
p3999
(lp4000
I25910259
aI70
asS'463'
p4001
(lp4002
I25910329
aI78
asS'489'
p4003
(lp4004
I13193948
aI112
asS'488'
p4005
(lp4006
I13194060
aI92
asS'487'
p4007
(lp4008
I13194152
aI50
asS'486'
p4009
(lp4010
I13194202
aI70
asS'485'
p4011
(lp4012
I13194272
aI96
asS'1354'
p4013
(lp4014
I13194368
aI607
asS'483'
p4015
(lp4016
I13194975
aI295
asS'482'
p4017
(lp4018
I13195270
aI85
asS'481'
p4019
(lp4020
I13195355
aI141
asS'480'
p4021
(lp4022
I13195496
aI98
asS'991'
p4023
(lp4024
I24823869
aI98
asS'990'
p4025
(lp4026
I24823967
aI323
asS'3922'
p4027
(lp4028
I13209164
aI7886
asS'3923'
p4029
(lp4030
I13217050
aI17870
asS'3920'
p4031
(lp4032
I13234920
aI8478
asS'3921'
p4033
(lp4034
I13243398
aI13948
asS'3926'
p4035
(lp4036
I23460514
aI35546
asS'3927'
p4037
(lp4038
I13278834
aI798
asS'3924'
p4039
(lp4040
I13279632
aI26801
asS'3925'
p4041
(lp4042
I13306433
aI35008
asS'3928'
p4043
(lp4044
I13381724
aI37477
asS'3929'
p4045
(lp4046
I13419201
aI11681
asS'124'
p4047
(lp4048
I24825316
aI328
asS'3993'
p4049
(lp4050
I13430882
aI36934
asS'993'
p4051
(lp4052
I24824290
aI71
asS'4149'
p4053
(lp4054
I13471737
aI23007
asS'4148'
p4055
(lp4056
I13494744
aI39856
asS'4145'
p4057
(lp4058
I13534600
aI2340
asS'4144'
p4059
(lp4060
I13536940
aI1698
asS'4147'
p4061
(lp4062
I13538638
aI49690
asS'4146'
p4063
(lp4064
I13588328
aI18182
asS'4141'
p4065
(lp4066
I13606510
aI51060
asS'4140'
p4067
(lp4068
I12182449
aI18625
asS'4143'
p4069
(lp4070
I13668564
aI29420
asS'4142'
p4071
(lp4072
I13697984
aI23928
asS'3856'
p4073
(lp4074
I13721912
aI22422
asS'3857'
p4075
(lp4076
I13744334
aI23984
asS'3854'
p4077
(lp4078
I13768318
aI9392
asS'3855'
p4079
(lp4080
I13777710
aI13616
asS'3852'
p4081
(lp4082
I13791326
aI15640
asS'3853'
p4083
(lp4084
I13806966
aI39827
asS'3850'
p4085
(lp4086
I13846793
aI19164
asS'3851'
p4087
(lp4088
I13865957
aI9068
asS'992'
p4089
(lp4090
I24824361
aI75
asS'3858'
p4091
(lp4092
I13875025
aI46658
asS'3859'
p4093
(lp4094
I13921683
aI23680
asS'3005'
p4095
(lp4096
I13989604
aI933
asS'3947'
p4097
(lp4098
I23791908
aI15753
asS'2898'
p4099
(lp4100
I13999857
aI696
asS'1567'
p4101
(lp4102
I26975846
aI371
asS'3004'
p4103
(lp4104
I14000553
aI641
asS'2288'
p4105
(lp4106
I16395599
aI608
asS'456'
p4107
(lp4108
I23554952
aI56
asS'2896'
p4109
(lp4110
I14015478
aI419
asS'199'
p4111
(lp4112
I14015897
aI62
asS'198'
p4113
(lp4114
I14015959
aI85
asS'2066'
p4115
(lp4116
I25038776
aI134
asS'3664'
p4117
(lp4118
I14016044
aI29779
asS'195'
p4119
(lp4120
I14045823
aI43
asS'194'
p4121
(lp4122
I14045866
aI89
asS'197'
p4123
(lp4124
I14045955
aI64
asS'196'
p4125
(lp4126
I14046019
aI84
asS'191'
p4127
(lp4128
I14046103
aI80
asS'190'
p4129
(lp4130
I14046183
aI34
asS'193'
p4131
(lp4132
I14046217
aI77
asS'192'
p4133
(lp4134
I14046294
aI75
asS'3678'
p4135
(lp4136
I14046369
aI16559
asS'3679'
p4137
(lp4138
I14062928
aI23041
asS'3672'
p4139
(lp4140
I14085969
aI37540
asS'3673'
p4141
(lp4142
I14123509
aI48370
asS'3670'
p4143
(lp4144
I14171879
aI28223
asS'3671'
p4145
(lp4146
I15895218
aI48909
asS'3676'
p4147
(lp4148
I14200491
aI47360
asS'3677'
p4149
(lp4150
I14247851
aI32379
asS'3674'
p4151
(lp4152
I14280230
aI48701
asS'3675'
p4153
(lp4154
I14328931
aI28969
asS'2543'
p4155
(lp4156
I14357900
aI573
asS'2542'
p4157
(lp4158
I3159122
aI911
asS'2541'
p4159
(lp4160
I14359386
aI881
asS'2540'
p4161
(lp4162
I14360267
aI101
asS'2547'
p4163
(lp4164
I14360368
aI847
asS'2546'
p4165
(lp4166
I14361215
aI702
asS'2545'
p4167
(lp4168
I14361917
aI385
asS'2544'
p4169
(lp4170
I3493770
aI497
asS'3006'
p4171
(lp4172
I14362972
aI679
asS'1274'
p4173
(lp4174
I25981483
aI424
asS'2549'
p4175
(lp4176
I14363651
aI226
asS'2548'
p4177
(lp4178
I14363877
aI192
asS'1456'
p4179
(lp4180
I14364069
aI823
asS'2381'
p4181
(lp4182
I14364892
aI120
asS'2380'
p4183
(lp4184
I14365012
aI913
asS'2383'
p4185
(lp4186
I14365925
aI760
asS'2382'
p4187
(lp4188
I9242377
aI104
asS'2385'
p4189
(lp4190
I14367321
aI163
asS'2384'
p4191
(lp4192
I14367484
aI142
asS'2387'
p4193
(lp4194
I14367626
aI422
asS'2386'
p4195
(lp4196
I14368048
aI107
asS'2389'
p4197
(lp4198
I14368155
aI577
asS'2388'
p4199
(lp4200
I3619050
aI545
asS'1451'
p4201
(lp4202
I14368851
aI89
asS'3580'
p4203
(lp4204
I14368940
aI23028
asS'3581'
p4205
(lp4206
I14391968
aI36443
asS'3582'
p4207
(lp4208
I3913932
aI19959
asS'3583'
p4209
(lp4210
I3979582
aI38309
asS'3584'
p4211
(lp4212
I14429198
aI14874
asS'3585'
p4213
(lp4214
I4019328
aI26216
asS'3586'
p4215
(lp4216
I14444137
aI23563
asS'3587'
p4217
(lp4218
I4086055
aI38453
asS'3588'
p4219
(lp4220
I4124508
aI28335
asS'3589'
p4221
(lp4222
I5374947
aI49175
asS'2761'
p4223
(lp4224
I14509099
aI91
asS'2760'
p4225
(lp4226
I4153948
aI88
asS'2767'
p4227
(lp4228
I14509987
aI746
asS'2766'
p4229
(lp4230
I14510733
aI548
asS'2765'
p4231
(lp4232
I14511281
aI881
asS'2764'
p4233
(lp4234
I14512162
aI630
asS'902'
p4235
(lp4236
I14513072
aI56
asS'903'
p4237
(lp4238
I14513128
aI66
asS'1849'
p4239
(lp4240
I4637754
aI119
asS'1848'
p4241
(lp4242
I4638351
aI245
asS'906'
p4243
(lp4244
I14513339
aI65
asS'907'
p4245
(lp4246
I14513404
aI81
asS'904'
p4247
(lp4248
I14513485
aI78
asS'905'
p4249
(lp4250
I14513563
aI64
asS'1843'
p4251
(lp4252
I14513627
aI406
asS'1842'
p4253
(lp4254
I4871538
aI140
asS'1841'
p4255
(lp4256
I4874192
aI176
asS'1840'
p4257
(lp4258
I4876398
aI149
asS'1847'
p4259
(lp4260
I14514310
aI879
asS'1846'
p4261
(lp4262
I14515189
aI864
asS'1845'
p4263
(lp4264
I14516053
aI918
asS'1844'
p4265
(lp4266
I14516971
aI1405
asS'3250'
p4267
(lp4268
I14518376
aI45085
asS'2169'
p4269
(lp4270
I14563461
aI635
asS'2168'
p4271
(lp4272
I14564096
aI367
asS'3251'
p4273
(lp4274
I14564463
aI38069
asS'2165'
p4275
(lp4276
I14602532
aI521
asS'2164'
p4277
(lp4278
I14603053
aI682
asS'2167'
p4279
(lp4280
I14603735
aI750
asS'2166'
p4281
(lp4282
I14604485
aI596
asS'2161'
p4283
(lp4284
I14605081
aI83
asS'2160'
p4285
(lp4286
I14605164
aI789
asS'2163'
p4287
(lp4288
I14605953
aI779
asS'2162'
p4289
(lp4290
I14606732
aI596
asS'2617'
p4291
(lp4292
I14607328
aI124
asS'2616'
p4293
(lp4294
I14607452
aI375
asS'2615'
p4295
(lp4296
I14607827
aI212
asS'2614'
p4297
(lp4298
I14608039
aI152
asS'2613'
p4299
(lp4300
I14608191
aI101
asS'2612'
p4301
(lp4302
I14608292
aI79
asS'2611'
p4303
(lp4304
I14608371
aI101
asS'2610'
p4305
(lp4306
I14608472
aI514
asS'3254'
p4307
(lp4308
I14608986
aI32494
asS'4082'
p4309
(lp4310
I14641480
aI38133
asS'2619'
p4311
(lp4312
I14679613
aI605
asS'2618'
p4313
(lp4314
I5562896
aI299
asS'4083'
p4315
(lp4316
I14680865
aI25309
asS'3298'
p4317
(lp4318
I14706174
aI31618
asS'3299'
p4319
(lp4320
I13257346
aI21488
asS'1908'
p4321
(lp4322
I14778130
aI1014
asS'1909'
p4323
(lp4324
I14779144
aI308
asS'3294'
p4325
(lp4326
I5604692
aI22513
asS'3295'
p4327
(lp4328
I5628077
aI43400
asS'3296'
p4329
(lp4330
I5672055
aI12543
asS'3297'
p4331
(lp4332
I5684598
aI8120
asS'3290'
p4333
(lp4334
I5692718
aI48061
asS'3291'
p4335
(lp4336
I5740779
aI44076
asS'3292'
p4337
(lp4338
I5785028
aI19139
asS'1901'
p4339
(lp4340
I14782896
aI713
asS'3452'
p4341
(lp4342
I5837493
aI31975
asS'3453'
p4343
(lp4344
I6012162
aI14027
asS'3450'
p4345
(lp4346
I6066492
aI47526
asS'3451'
p4347
(lp4348
I6114018
aI20833
asS'3456'
p4349
(lp4350
I6143187
aI50743
asS'3457'
p4351
(lp4352
I6214598
aI31792
asS'3454'
p4353
(lp4354
I6246390
aI36862
asS'3455'
p4355
(lp4356
I6283252
aI4896
asS'3458'
p4357
(lp4358
I14786977
aI13142
asS'3459'
p4359
(lp4360
I14800119
aI45558
asS'858'
p4361
(lp4362
I14845677
aI386
asS'859'
p4363
(lp4364
I14846063
aI54
asS'3293'
p4365
(lp4366
I14846117
aI19923
asS'4088'
p4367
(lp4368
I14866040
aI15591
asS'6'
p4369
(lp4370
I14881631
aI77
asS'3864'
p4371
(lp4372
I14881811
aI19450
asS'1184'
p4373
(lp4374
I27540970
aI509
asS'740'
p4375
(lp4376
I14901261
aI56
asS'741'
p4377
(lp4378
I14901317
aI67
asS'742'
p4379
(lp4380
I14901384
aI67
asS'743'
p4381
(lp4382
I14901451
aI50
asS'744'
p4383
(lp4384
I14901501
aI62
asS'745'
p4385
(lp4386
I14901563
aI57
asS'746'
p4387
(lp4388
I14901620
aI57
asS'747'
p4389
(lp4390
I14901677
aI89
asS'748'
p4391
(lp4392
I14901766
aI107
asS'749'
p4393
(lp4394
I14901873
aI56
asS'1799'
p4395
(lp4396
I21005668
aI144
asS'3063'
p4397
(lp4398
I14902486
aI158
asS'3062'
p4399
(lp4400
I14902644
aI152
asS'3061'
p4401
(lp4402
I14902796
aI167
asS'3060'
p4403
(lp4404
I7729129
aI380
asS'3067'
p4405
(lp4406
I14903123
aI895
asS'3066'
p4407
(lp4408
I14904018
aI719
asS'3065'
p4409
(lp4410
I7729706
aI541
asS'3064'
p4411
(lp4412
I7762847
aI710
asS'2947'
p4413
(lp4414
I14906237
aI924
asS'2946'
p4415
(lp4416
I14907161
aI622
asS'3069'
p4417
(lp4418
I10621253
aI754
asS'3068'
p4419
(lp4420
I7797051
aI582
asS'2943'
p4421
(lp4422
I14909272
aI623
asS'2942'
p4423
(lp4424
I14909895
aI206
asS'2941'
p4425
(lp4426
I14910101
aI568
asS'2940'
p4427
(lp4428
I14910669
aI982
asS'1050'
p4429
(lp4430
I14911651
aI235
asS'1051'
p4431
(lp4432
I14911886
aI715
asS'1052'
p4433
(lp4434
I14912601
aI390
asS'1053'
p4435
(lp4436
I14912991
aI232
asS'1054'
p4437
(lp4438
I14913223
aI65
asS'1055'
p4439
(lp4440
I14913288
aI91
asS'1056'
p4441
(lp4442
I14913379
aI57
asS'1057'
p4443
(lp4444
I14913436
aI76
asS'1058'
p4445
(lp4446
I14913512
aI84
asS'1059'
p4447
(lp4448
I14913596
aI68
asS'718'
p4449
(lp4450
I21007862
aI195
asS'1696'
p4451
(lp4452
I14913820
aI574
asS'1697'
p4453
(lp4454
I14914394
aI759
asS'1694'
p4455
(lp4456
I14915153
aI450
asS'1695'
p4457
(lp4458
I14915603
aI1134
asS'1692'
p4459
(lp4460
I14916737
aI571
asS'1693'
p4461
(lp4462
I14917308
aI696
asS'1690'
p4463
(lp4464
I14918004
aI189
asS'1691'
p4465
(lp4466
I14918193
aI1028
asS'715'
p4467
(lp4468
I21008372
aI77
asS'1698'
p4469
(lp4470
I14920096
aI790
asS'1699'
p4471
(lp4472
I14920886
aI994
asS'1278'
p4473
(lp4474
I14921880
aI514
asS'1279'
p4475
(lp4476
I14922394
aI343
asS'618'
p4477
(lp4478
I14922737
aI254
asS'619'
p4479
(lp4480
I14922991
aI825
asS'1270'
p4481
(lp4482
I8583330
aI435
asS'1271'
p4483
(lp4484
I8583967
aI473
asS'1272'
p4485
(lp4486
I8584665
aI859
asS'611'
p4487
(lp4488
I14924002
aI63
asS'616'
p4489
(lp4490
I14924065
aI1437
asS'617'
p4491
(lp4492
I14925502
aI279
asS'1276'
p4493
(lp4494
I8604845
aI58
asS'1277'
p4495
(lp4496
I8647605
aI89
asS'711'
p4497
(lp4498
I21008643
aI69
asS'2596'
p4499
(lp4500
I16634661
aI677
asS'710'
p4501
(lp4502
I21008712
aI67
asS'1633'
p4503
(lp4504
I23507915
aI311
asS'3333'
p4505
(lp4506
I14926849
aI47287
asS'3119'
p4507
(lp4508
I14974136
aI480
asS'3118'
p4509
(lp4510
I9189036
aI536
asS'3117'
p4511
(lp4512
I14975508
aI827
asS'3116'
p4513
(lp4514
I14976335
aI767
asS'3115'
p4515
(lp4516
I14977102
aI927
asS'3114'
p4517
(lp4518
I14978029
aI863
asS'3113'
p4519
(lp4520
I14978892
aI595
asS'3112'
p4521
(lp4522
I14979487
aI1143
asS'3111'
p4523
(lp4524
I9484187
aI782
asS'3110'
p4525
(lp4526
I14981022
aI598
asS'1472'
p4527
(lp4528
I14981620
aI400
asS'1473'
p4529
(lp4530
I14982020
aI461
asS'1470'
p4531
(lp4532
I14982481
aI1364
asS'3330'
p4533
(lp4534
I10914015
aI15166
asS'1476'
p4535
(lp4536
I14984380
aI1169
asS'1477'
p4537
(lp4538
I14985549
aI106
asS'1474'
p4539
(lp4540
I14985655
aI506
asS'1475'
p4541
(lp4542
I14986161
aI435
asS'3337'
p4543
(lp4544
I14986596
aI16977
asS'1478'
p4545
(lp4546
I15003573
aI81
asS'1479'
p4547
(lp4548
I15003654
aI95
asS'3336'
p4549
(lp4550
I15003749
aI2220
asS'1304'
p4551
(lp4552
I15005969
aI235
asS'1305'
p4553
(lp4554
I15006204
aI445
asS'1306'
p4555
(lp4556
I15006649
aI290
asS'1307'
p4557
(lp4558
I15006939
aI1002
asS'1300'
p4559
(lp4560
I15007941
aI66
asS'3335'
p4561
(lp4562
I10971414
aI14977
asS'1302'
p4563
(lp4564
I15008071
aI98
asS'2595'
p4565
(lp4566
I14919221
aI707
asS'3334'
p4567
(lp4568
I10993690
aI16363
asS'1308'
p4569
(lp4570
I15009115
aI935
asS'1309'
p4571
(lp4572
I15010050
aI636
asS'2804'
p4573
(lp4574
I25768792
aI365
asS'2597'
p4575
(lp4576
I16635338
aI636
asS'498'
p4577
(lp4578
I15053128
aI74
asS'499'
p4579
(lp4580
I15053202
aI66
asS'2590'
p4581
(lp4582
I16635974
aI60
asS'1499'
p4583
(lp4584
I6785834
aI90
asS'494'
p4585
(lp4586
I15095796
aI180
asS'495'
p4587
(lp4588
I15095976
aI698
asS'496'
p4589
(lp4590
I15096674
aI80
asS'497'
p4591
(lp4592
I15096754
aI839
asS'490'
p4593
(lp4594
I15097593
aI78
asS'491'
p4595
(lp4596
I15097671
aI114
asS'492'
p4597
(lp4598
I15097785
aI513
asS'493'
p4599
(lp4600
I15098298
aI97
asS'24'
p4601
(lp4602
I15098395
aI72
asS'25'
p4603
(lp4604
I15098467
aI65
asS'26'
p4605
(lp4606
I15098532
aI79
asS'27'
p4607
(lp4608
I15098611
aI125
asS'20'
p4609
(lp4610
I15098736
aI258
asS'21'
p4611
(lp4612
I15098994
aI68
asS'22'
p4613
(lp4614
I15099062
aI129
asS'23'
p4615
(lp4616
I15099191
aI111
asS'2593'
p4617
(lp4618
I15113620
aI803
asS'28'
p4619
(lp4620
I15114423
aI63
asS'29'
p4621
(lp4622
I15114486
aI39
asS'2591'
p4623
(lp4624
I16636034
aI124
asS'3262'
p4625
(lp4626
I15114525
aI22972
asS'3939'
p4627
(lp4628
I15137497
aI10714
asS'3938'
p4629
(lp4630
I15148211
aI5594
asS'3935'
p4631
(lp4632
I15153805
aI1052
asS'3934'
p4633
(lp4634
I15154857
aI27739
asS'3937'
p4635
(lp4636
I15182596
aI32695
asS'3936'
p4637
(lp4638
I15215291
aI36834
asS'3931'
p4639
(lp4640
I15252125
aI4022
asS'3930'
p4641
(lp4642
I15256147
aI31906
asS'3933'
p4643
(lp4644
I15288053
aI38703
asS'3932'
p4645
(lp4646
I11868851
aI27130
asS'1703'
p4647
(lp4648
I15326957
aI712
asS'1516'
p4649
(lp4650
I25980898
aI585
asS'4138'
p4651
(lp4652
I15361070
aI25922
asS'4139'
p4653
(lp4654
I15386992
aI13479
asS'4130'
p4655
(lp4656
I15400471
aI39663
asS'4131'
p4657
(lp4658
I15440134
aI22291
asS'4132'
p4659
(lp4660
I12629160
aI47522
asS'4133'
p4661
(lp4662
I15474288
aI14850
asS'4134'
p4663
(lp4664
I15489138
aI46054
asS'4135'
p4665
(lp4666
I15535192
aI46748
asS'4136'
p4667
(lp4668
I15581940
aI47587
asS'4137'
p4669
(lp4670
I15629527
aI37794
asS'3841'
p4671
(lp4672
I15667321
aI23603
asS'3840'
p4673
(lp4674
I15690924
aI46966
asS'3843'
p4675
(lp4676
I18279137
aI50246
asS'3842'
p4677
(lp4678
I18475203
aI6160
asS'3845'
p4679
(lp4680
I15783721
aI23928
asS'3844'
p4681
(lp4682
I15807649
aI37108
asS'3847'
p4683
(lp4684
I15844757
aI45272
asS'3846'
p4685
(lp4686
I12765571
aI23518
asS'3849'
p4687
(lp4688
I15890764
aI4454
asS'3848'
p4689
(lp4690
I13945363
aI44241
asS'597'
p4691
(lp4692
I21069049
aI87
asS'301'
p4693
(lp4694
I19323600
aI78
asS'4044'
p4695
(lp4696
I16013490
aI15987
asS'4045'
p4697
(lp4698
I16029477
aI48706
asS'4046'
p4699
(lp4700
I16078183
aI45479
asS'4047'
p4701
(lp4702
I16123662
aI12631
asS'4040'
p4703
(lp4704
I16136293
aI39992
asS'4041'
p4705
(lp4706
I16176285
aI10992
asS'4042'
p4707
(lp4708
I16187277
aI19547
asS'4043'
p4709
(lp4710
I16206824
aI37649
asS'4048'
p4711
(lp4712
I16252747
aI38750
asS'4049'
p4713
(lp4714
I16291497
aI21211
asS'447'
p4715
(lp4716
I21313490
aI56
asS'7'
p4717
(lp4718
I16345434
aI64
asS'1602'
p4719
(lp4720
I5181527
aI669
asS'3665'
p4721
(lp4722
I14001194
aI14284
asS'2051'
p4723
(lp4724
I2482038
aI881
asS'3667'
p4725
(lp4726
I16397550
aI31278
asS'3666'
p4727
(lp4728
I16428828
aI35671
asS'3661'
p4729
(lp4730
I16464499
aI44516
asS'3660'
p4731
(lp4732
I16509015
aI21800
asS'3663'
p4733
(lp4734
I16530815
aI41690
asS'3662'
p4735
(lp4736
I8833560
aI48353
asS'2280'
p4737
(lp4738
I16573206
aI237
asS'2281'
p4739
(lp4740
I16573443
aI177
asS'2282'
p4741
(lp4742
I16573620
aI164
asS'2283'
p4743
(lp4744
I16573784
aI580
asS'3669'
p4745
(lp4746
I10493900
aI24948
asS'2285'
p4747
(lp4748
I16574548
aI456
asS'2286'
p4749
(lp4750
I16575004
aI584
asS'2287'
p4751
(lp4752
I16575588
aI685
asS'446'
p4753
(lp4754
I21313546
aI69
asS'1468'
p4755
(lp4756
I17308128
aI765
asS'2578'
p4757
(lp4758
I16583650
aI279
asS'2579'
p4759
(lp4760
I16583929
aI539
asS'2576'
p4761
(lp4762
I16584468
aI194
asS'2577'
p4763
(lp4764
I16584662
aI238
asS'2574'
p4765
(lp4766
I16584900
aI207
asS'2575'
p4767
(lp4768
I19628427
aI206
asS'2572'
p4769
(lp4770
I16585234
aI908
asS'2573'
p4771
(lp4772
I16586142
aI53
asS'2570'
p4773
(lp4774
I16586195
aI657
asS'2571'
p4775
(lp4776
I16586852
aI711
asS'3690'
p4777
(lp4778
I16587563
aI21517
asS'2395'
p4779
(lp4780
I12626462
aI363
asS'2378'
p4781
(lp4782
I16609080
aI783
asS'2379'
p4783
(lp4784
I16609863
aI706
asS'3691'
p4785
(lp4786
I16610569
aI17605
asS'2374'
p4787
(lp4788
I16628174
aI608
asS'2375'
p4789
(lp4790
I16628782
aI1000
asS'2376'
p4791
(lp4792
I16629782
aI550
asS'2377'
p4793
(lp4794
I16630332
aI878
asS'2370'
p4795
(lp4796
I16631210
aI744
asS'2371'
p4797
(lp4798
I16631954
aI371
asS'2372'
p4799
(lp4800
I16632325
aI791
asS'2373'
p4801
(lp4802
I16633116
aI674
asS'3593'
p4803
(lp4804
I2063116
aI6057
asS'3592'
p4805
(lp4806
I2074988
aI46038
asS'3591'
p4807
(lp4808
I2420080
aI48575
asS'3590'
p4809
(lp4810
I15045503
aI7625
asS'3597'
p4811
(lp4812
I841084
aI5911
asS'3596'
p4813
(lp4814
I2619863
aI28153
asS'2592'
p4815
(lp4816
I16636158
aI810
asS'3594'
p4817
(lp4818
I2993776
aI716
asS'3599'
p4819
(lp4820
I16637127
aI38259
asS'3598'
p4821
(lp4822
I16675386
aI38522
asS'2598'
p4823
(lp4824
I16713908
aI981
asS'2599'
p4825
(lp4826
I15326756
aI201
asS'1876'
p4827
(lp4828
I16751936
aI361
asS'1877'
p4829
(lp4830
I16752297
aI696
asS'1874'
p4831
(lp4832
I16752993
aI818
asS'1875'
p4833
(lp4834
I15783167
aI554
asS'1872'
p4835
(lp4836
I16754221
aI114
asS'1873'
p4837
(lp4838
I16754335
aI282
asS'1870'
p4839
(lp4840
I16754617
aI403
asS'1871'
p4841
(lp4842
I16755020
aI561
asS'595'
p4843
(lp4844
I21068445
aI511
asS'1878'
p4845
(lp4846
I16756128
aI683
asS'1879'
p4847
(lp4848
I16394773
aI826
asS'977'
p4849
(lp4850
I16756924
aI129
asS'976'
p4851
(lp4852
I16757053
aI69
asS'975'
p4853
(lp4854
I16757122
aI135
asS'974'
p4855
(lp4856
I16757257
aI441
asS'973'
p4857
(lp4858
I16757698
aI641
asS'972'
p4859
(lp4860
I16582706
aI944
asS'971'
p4861
(lp4862
I16758420
aI444
asS'970'
p4863
(lp4864
I16758864
aI61
asS'596'
p4865
(lp4866
I21069136
aI254
asS'979'
p4867
(lp4868
I16759010
aI88
asS'978'
p4869
(lp4870
I16759098
aI71
asS'182'
p4871
(lp4872
I16759169
aI101
asS'183'
p4873
(lp4874
I16759270
aI73
asS'180'
p4875
(lp4876
I16759343
aI99
asS'181'
p4877
(lp4878
I16759442
aI98
asS'186'
p4879
(lp4880
I16759540
aI104
asS'187'
p4881
(lp4882
I16759644
aI44
asS'184'
p4883
(lp4884
I16759688
aI134
asS'185'
p4885
(lp4886
I16759822
aI656
asS'2110'
p4887
(lp4888
I16760478
aI588
asS'2111'
p4889
(lp4890
I16761066
aI643
asS'188'
p4891
(lp4892
I16761709
aI99
asS'189'
p4893
(lp4894
I16761808
aI72
asS'2114'
p4895
(lp4896
I16761880
aI581
asS'2115'
p4897
(lp4898
I16762461
aI167
asS'2116'
p4899
(lp4900
I16762628
aI275
asS'1559'
p4901
(lp4902
I16762903
aI168
asS'2622'
p4903
(lp4904
I16763071
aI1038
asS'2623'
p4905
(lp4906
I16764109
aI668
asS'2620'
p4907
(lp4908
I16764777
aI1007
asS'2621'
p4909
(lp4910
I16765784
aI466
asS'2626'
p4911
(lp4912
I16766250
aI617
asS'2627'
p4913
(lp4914
I16766867
aI651
asS'2624'
p4915
(lp4916
I16767518
aI665
asS'2625'
p4917
(lp4918
I16768183
aI974
asS'2628'
p4919
(lp4920
I16769157
aI905
asS'2629'
p4921
(lp4922
I16770062
aI740
asS'4089'
p4923
(lp4924
I16770802
aI45822
asS'1919'
p4925
(lp4926
I16816624
aI176
asS'1918'
p4927
(lp4928
I16816800
aI111
asS'2131'
p4929
(lp4930
I20358288
aI142
asS'3289'
p4931
(lp4932
I16817533
aI45914
asS'3288'
p4933
(lp4934
I16863447
aI43292
asS'1911'
p4935
(lp4936
I16906739
aI831
asS'1910'
p4937
(lp4938
I16907570
aI479
asS'1913'
p4939
(lp4940
I16908049
aI205
asS'3284'
p4941
(lp4942
I12336801
aI20144
asS'3283'
p4943
(lp4944
I13990537
aI7380
asS'3282'
p4945
(lp4946
I12678889
aI2345
asS'3281'
p4947
(lp4948
I12751196
aI3684
asS'3280'
p4949
(lp4950
I15053268
aI42528
asS'869'
p4951
(lp4952
I16910802
aI66
asS'868'
p4953
(lp4954
I16910868
aI131
asS'2113'
p4955
(lp4956
I16910999
aI1211
asS'3449'
p4957
(lp4958
I16912210
aI33280
asS'3448'
p4959
(lp4960
I16945490
aI50134
asS'516'
p4961
(lp4962
I23735931
aI69
asS'861'
p4963
(lp4964
I16996191
aI397
asS'860'
p4965
(lp4966
I16996588
aI376
asS'863'
p4967
(lp4968
I16996964
aI49
asS'3446'
p4969
(lp4970
I1008043
aI15393
asS'3441'
p4971
(lp4972
I1168926
aI14441
asS'3440'
p4973
(lp4974
I1295080
aI7686
asS'867'
p4975
(lp4976
I16997728
aI696
asS'866'
p4977
(lp4978
I16998424
aI47
asS'2024'
p4979
(lp4980
I16998471
aI115
asS'2025'
p4981
(lp4982
I16998586
aI222
asS'2026'
p4983
(lp4984
I16998808
aI75
asS'2027'
p4985
(lp4986
I16998883
aI187
asS'2020'
p4987
(lp4988
I16999070
aI964
asS'2021'
p4989
(lp4990
I17000034
aI161
asS'2022'
p4991
(lp4992
I17000195
aI120
asS'2751'
p4993
(lp4994
I12703921
aI659
asS'2828'
p4995
(lp4996
I21073366
aI1072
asS'2117'
p4997
(lp4998
I17000873
aI241
asS'2028'
p4999
(lp5000
I17001114
aI224
asS'2029'
p5001
(lp5002
I17001338
aI169
asS'2758'
p5003
(lp5004
I17001507
aI197
asS'2759'
p5005
(lp5006
I17001704
aI139
asS'883'
p5007
(lp5008
I17001843
aI90
asS'882'
p5009
(lp5010
I17001933
aI63
asS'881'
p5011
(lp5012
I17001996
aI99
asS'880'
p5013
(lp5014
I17002095
aI89
asS'887'
p5015
(lp5016
I17002184
aI162
asS'886'
p5017
(lp5018
I17002346
aI63
asS'885'
p5019
(lp5020
I17002409
aI78
asS'884'
p5021
(lp5022
I17002487
aI160
asS'4017'
p5023
(lp5024
I26267927
aI34445
asS'889'
p5025
(lp5026
I17002647
aI77
asS'888'
p5027
(lp5028
I17002724
aI135
asS'1340'
p5029
(lp5030
I24604251
aI193
asS'2824'
p5031
(lp5032
I21077003
aI228
asS'2825'
p5033
(lp5034
I21077231
aI259
asS'657'
p5035
(lp5036
I23731910
aI93
asS'354'
p5037
(lp5038
I26364594
aI137
asS'353'
p5039
(lp5040
I26364731
aI87
asS'654'
p5041
(lp5042
I23732003
aI87
asS'352'
p5043
(lp5044
I26364818
aI81
asS'775'
p5045
(lp5046
I17134306
aI85
asS'774'
p5047
(lp5048
I17134391
aI46
asS'777'
p5049
(lp5050
I17134437
aI69
asS'776'
p5051
(lp5052
I17134506
aI108
asS'771'
p5053
(lp5054
I17134614
aI83
asS'770'
p5055
(lp5056
I17134697
aI75
asS'773'
p5057
(lp5058
I17134772
aI62
asS'772'
p5059
(lp5060
I17134834
aI84
asS'779'
p5061
(lp5062
I17134918
aI83
asS'778'
p5063
(lp5064
I17135001
aI129
asS'77'
p5065
(lp5066
I17135130
aI74
asS'76'
p5067
(lp5068
I17135204
aI108
asS'75'
p5069
(lp5070
I17135312
aI78
asS'74'
p5071
(lp5072
I17135390
aI68
asS'73'
p5073
(lp5074
I17135458
aI69
asS'72'
p5075
(lp5076
I17135527
aI64
asS'71'
p5077
(lp5078
I17135591
aI767
asS'70'
p5079
(lp5080
I17136358
aI227
asS'2972'
p5081
(lp5082
I17136585
aI614
asS'2973'
p5083
(lp5084
I17137199
aI583
asS'2970'
p5085
(lp5086
I17137782
aI860
asS'2971'
p5087
(lp5088
I17138642
aI862
asS'2976'
p5089
(lp5090
I17139504
aI198
asS'2977'
p5091
(lp5092
I17139702
aI597
asS'3050'
p5093
(lp5094
I8580897
aI589
asS'3051'
p5095
(lp5096
I8600219
aI186
asS'1043'
p5097
(lp5098
I17141018
aI514
asS'1042'
p5099
(lp5100
I17141532
aI108
asS'1041'
p5101
(lp5102
I17141640
aI72
asS'1040'
p5103
(lp5104
I17141712
aI83
asS'1047'
p5105
(lp5106
I17141795
aI353
asS'1046'
p5107
(lp5108
I17142148
aI658
asS'1045'
p5109
(lp5110
I17142806
aI350
asS'1044'
p5111
(lp5112
I17143156
aI291
asS'1049'
p5113
(lp5114
I17143447
aI528
asS'1048'
p5115
(lp5116
I17143975
aI544
asS'1681'
p5117
(lp5118
I17144519
aI1053
asS'3027'
p5119
(lp5120
I9411526
aI841
asS'1683'
p5121
(lp5122
I17146776
aI491
asS'1682'
p5123
(lp5124
I17147267
aI402
asS'1685'
p5125
(lp5126
I17147669
aI463
asS'1684'
p5127
(lp5128
I17148132
aI807
asS'1687'
p5129
(lp5130
I17148939
aI189
asS'1686'
p5131
(lp5132
I17149128
aI604
asS'1689'
p5133
(lp5134
I17149732
aI208
asS'1688'
p5135
(lp5136
I17149940
aI180
asS'358'
p5137
(lp5138
I26578362
aI78
asS'3025'
p5139
(lp5140
I17176650
aI740
asS'1269'
p5141
(lp5142
I17177390
aI74
asS'3024'
p5143
(lp5144
I10970363
aI880
asS'669'
p5145
(lp5146
I17182295
aI48
asS'668'
p5147
(lp5148
I17182343
aI84
asS'667'
p5149
(lp5150
I17182427
aI67
asS'1262'
p5151
(lp5152
I17182494
aI548
asS'665'
p5153
(lp5154
I17183042
aI65
asS'664'
p5155
(lp5156
I17183107
aI57
asS'663'
p5157
(lp5158
I12853747
aI51
asS'662'
p5159
(lp5160
I12856743
aI65
asS'1265'
p5161
(lp5162
I17183888
aI882
asS'1264'
p5163
(lp5164
I17184770
aI953
asS'3287'
p5165
(lp5166
I17185723
aI36302
asS'1242'
p5167
(lp5168
I18818005
aI86
asS'1722'
p5169
(lp5170
I11329330
aI578
asS'3286'
p5171
(lp5172
I17223155
aI39433
asS'3020'
p5173
(lp5174
I17263158
aI750
asS'3285'
p5175
(lp5176
I17263908
aI37885
asS'3128'
p5177
(lp5178
I17301793
aI830
asS'1912'
p5179
(lp5180
I16908254
aI468
asS'3122'
p5181
(lp5182
I17303194
aI197
asS'1915'
p5183
(lp5184
I16908722
aI810
asS'3120'
p5185
(lp5186
I17303559
aI790
asS'3121'
p5187
(lp5188
I17304349
aI576
asS'3126'
p5189
(lp5190
I17304925
aI339
asS'3127'
p5191
(lp5192
I17305264
aI670
asS'3124'
p5193
(lp5194
I17305934
aI634
asS'1914'
p5195
(lp5196
I16909532
aI213
asS'1469'
p5197
(lp5198
I17307258
aI870
asS'1917'
p5199
(lp5200
I16909745
aI339
asS'1465'
p5201
(lp5202
I17334097
aI508
asS'1464'
p5203
(lp5204
I16816911
aI622
asS'1467'
p5205
(lp5206
I17334665
aI374
asS'1916'
p5207
(lp5208
I16910084
aI718
asS'1461'
p5209
(lp5210
I17335086
aI45
asS'1460'
p5211
(lp5212
I17335131
aI304
asS'1463'
p5213
(lp5214
I17335435
aI483
asS'1019'
p5215
(lp5216
I17335918
aI67
asS'1317'
p5217
(lp5218
I17335985
aI91
asS'1316'
p5219
(lp5220
I17336076
aI91
asS'1315'
p5221
(lp5222
I17336167
aI1001
asS'1314'
p5223
(lp5224
I17337168
aI389
asS'1313'
p5225
(lp5226
I17337557
aI100
asS'1312'
p5227
(lp5228
I17337657
aI42
asS'1311'
p5229
(lp5230
I17337699
aI51
asS'1310'
p5231
(lp5232
I17337750
aI130
asS'3276'
p5233
(lp5234
I17337880
aI21737
asS'1319'
p5235
(lp5236
I17359617
aI87
asS'1318'
p5237
(lp5238
I17359704
aI66
asS'3277'
p5239
(lp5240
I23152110
aI12428
asS'1010'
p5241
(lp5242
I17361403
aI521
asS'1011'
p5243
(lp5244
I17361924
aI87
asS'3445'
p5245
(lp5246
I17362011
aI4897
asS'3123'
p5247
(lp5248
I17303391
aI168
asS'3444'
p5249
(lp5250
I17367664
aI50731
asS'3447'
p5251
(lp5252
I17418395
aI29713
asS'3948'
p5253
(lp5254
I17448108
aI27661
asS'3949'
p5255
(lp5256
I17475769
aI35508
asS'319'
p5257
(lp5258
I17511277
aI501
asS'862'
p5259
(lp5260
I16997013
aI78
asS'3940'
p5261
(lp5262
I12704822
aI44134
asS'3941'
p5263
(lp5264
I10707393
aI37406
asS'3942'
p5265
(lp5266
I6580593
aI5660
asS'310'
p5267
(lp5268
I17528560
aI118
asS'317'
p5269
(lp5270
I17528678
aI110
asS'316'
p5271
(lp5272
I17528788
aI105
asS'3815'
p5273
(lp5274
I16576273
aI6433
asS'864'
p5275
(lp5276
I16997646
aI82
asS'3443'
p5277
(lp5278
I17565000
aI47752
asS'3442'
p5279
(lp5280
I17612752
aI36741
asS'1520'
p5281
(lp5282
I21313745
aI111
asS'2756'
p5283
(lp5284
I17649493
aI218
asS'4129'
p5285
(lp5286
I4046178
aI39877
asS'4128'
p5287
(lp5288
I17687597
aI36115
asS'4198'
p5289
(lp5290
I17723712
aI38487
asS'2757'
p5291
(lp5292
I17762199
aI102
asS'4123'
p5293
(lp5294
I17762301
aI48664
asS'4122'
p5295
(lp5296
I17810965
aI41893
asS'4121'
p5297
(lp5298
I17852858
aI40056
asS'4199'
p5299
(lp5300
I9485279
aI18522
asS'4127'
p5301
(lp5302
I17930083
aI20944
asS'2754'
p5303
(lp5304
I17951027
aI652
asS'4125'
p5305
(lp5306
I17951679
aI41197
asS'4124'
p5307
(lp5308
I17992876
aI17453
asS'443'
p5309
(lp5310
I21311863
aI92
asS'2755'
p5311
(lp5312
I18010425
aI85
asS'3036'
p5313
(lp5314
I23497213
aI702
asS'442'
p5315
(lp5316
I21311955
aI80
asS'2752'
p5317
(lp5318
I18031169
aI154
asS'441'
p5319
(lp5320
I21312035
aI761
asS'2753'
p5321
(lp5322
I18051959
aI1348
asS'440'
p5323
(lp5324
I21312796
aI694
asS'2750'
p5325
(lp5326
I18065182
aI930
asS'4192'
p5327
(lp5328
I10408992
aI30445
asS'2023'
p5329
(lp5330
I17000315
aI149
asS'4193'
p5331
(lp5332
I10446041
aI7931
asS'445'
p5333
(lp5334
I21313615
aI56
asS'444'
p5335
(lp5336
I21313671
aI74
asS'4057'
p5337
(lp5338
I25891598
aI14860
asS'4056'
p5339
(lp5340
I18090170
aI30165
asS'4055'
p5341
(lp5342
I18120335
aI15582
asS'2694'
p5343
(lp5344
I18135917
aI135
asS'4053'
p5345
(lp5346
I18136052
aI43264
asS'4052'
p5347
(lp5348
I18179316
aI4963
asS'4051'
p5349
(lp5350
I18184279
aI40587
asS'4050'
p5351
(lp5352
I18224866
aI10440
asS'4059'
p5353
(lp5354
I18236070
aI41255
asS'2692'
p5355
(lp5356
I18277325
aI1425
asS'630'
p5357
(lp5358
I18278750
aI387
asS'3610'
p5359
(lp5360
I18372456
aI24740
asS'3611'
p5361
(lp5362
I18397196
aI30806
asS'2299'
p5363
(lp5364
I18428002
aI793
asS'2298'
p5365
(lp5366
I18428795
aI667
asS'3614'
p5367
(lp5368
I26629404
aI22087
asS'3615'
p5369
(lp5370
I18429976
aI5570
asS'3616'
p5371
(lp5372
I18435546
aI36429
asS'3617'
p5373
(lp5374
I18471975
aI1213
asS'2293'
p5375
(lp5376
I18473188
aI131
asS'2292'
p5377
(lp5378
I18473319
aI98
asS'2291'
p5379
(lp5380
I18473417
aI170
asS'2290'
p5381
(lp5382
I18473587
aI282
asS'2297'
p5383
(lp5384
I18473869
aI955
asS'2296'
p5385
(lp5386
I18474824
aI120
asS'2295'
p5387
(lp5388
I2038346
aI223
asS'2294'
p5389
(lp5390
I18475079
aI124
asS'2569'
p5391
(lp5392
I18495253
aI776
asS'2568'
p5393
(lp5394
I18496029
aI983
asS'288'
p5395
(lp5396
I26656044
aI101
asS'2561'
p5397
(lp5398
I18497012
aI708
asS'2560'
p5399
(lp5400
I18497720
aI515
asS'2563'
p5401
(lp5402
I18498235
aI55
asS'2562'
p5403
(lp5404
I18498290
aI59
asS'632'
p5405
(lp5406
I10968262
aI157
asS'1615'
p5407
(lp5408
I3079980
aI365
asS'2567'
p5409
(lp5410
I18498643
aI849
asS'2566'
p5411
(lp5412
I18499492
aI204
asS'908'
p5413
(lp5414
I14514173
aI55
asS'2369'
p5415
(lp5416
I18499815
aI689
asS'2368'
p5417
(lp5418
I18500504
aI667
asS'2367'
p5419
(lp5420
I18501171
aI652
asS'2366'
p5421
(lp5422
I18501823
aI584
asS'2365'
p5423
(lp5424
I18502407
aI433
asS'2364'
p5425
(lp5426
I18502840
aI299
asS'2363'
p5427
(lp5428
I18503139
aI146
asS'2362'
p5429
(lp5430
I18503285
aI208
asS'2361'
p5431
(lp5432
I18503493
aI141
asS'2360'
p5433
(lp5434
I18503634
aI135
asS'2587'
p5435
(lp5436
I18503769
aI117
asS'2586'
p5437
(lp5438
I18503886
aI175
asS'2585'
p5439
(lp5440
I18504061
aI144
asS'2584'
p5441
(lp5442
I18504205
aI525
asS'2583'
p5443
(lp5444
I18504730
aI246
asS'2582'
p5445
(lp5446
I18504976
aI766
asS'2581'
p5447
(lp5448
I18505742
aI568
asS'2580'
p5449
(lp5450
I18506310
aI775
asS'865'
p5451
(lp5452
I16997091
aI555
asS'39'
p5453
(lp5454
I21333671
aI230
asS'2589'
p5455
(lp5456
I18556484
aI120
asS'2588'
p5457
(lp5458
I18556604
aI97
asS'1861'
p5459
(lp5460
I18556701
aI438
asS'1860'
p5461
(lp5462
I18557139
aI405
asS'1863'
p5463
(lp5464
I18557544
aI194
asS'1862'
p5465
(lp5466
I18557738
aI1116
asS'1865'
p5467
(lp5468
I18558854
aI117
asS'3729'
p5469
(lp5470
I17051363
aI21957
asS'1867'
p5471
(lp5472
I18559111
aI541
asS'1866'
p5473
(lp5474
I18559652
aI247
asS'3724'
p5475
(lp5476
I62575
aI24430
asS'3725'
p5477
(lp5478
I168190
aI50350
asS'3726'
p5479
(lp5480
I18561171
aI35934
asS'3727'
p5481
(lp5482
I18597105
aI6625
asS'3720'
p5483
(lp5484
I18603730
aI41268
asS'3721'
p5485
(lp5486
I18644998
aI29446
asS'3722'
p5487
(lp5488
I18010510
aI20036
asS'3723'
p5489
(lp5490
I18708146
aI22899
asS'964'
p5491
(lp5492
I18731045
aI709
asS'965'
p5493
(lp5494
I18731754
aI85
asS'966'
p5495
(lp5496
I18731839
aI93
asS'967'
p5497
(lp5498
I18731932
aI106
asS'960'
p5499
(lp5500
I18732038
aI63
asS'961'
p5501
(lp5502
I18732101
aI283
asS'962'
p5503
(lp5504
I18732384
aI566
asS'963'
p5505
(lp5506
I18732950
aI350
asS'968'
p5507
(lp5508
I18733300
aI137
asS'969'
p5509
(lp5510
I18733437
aI60
asS'2109'
p5511
(lp5512
I18733497
aI573
asS'2108'
p5513
(lp5514
I18734070
aI363
asS'2103'
p5515
(lp5516
I18734433
aI156
asS'2102'
p5517
(lp5518
I18734589
aI123
asS'2101'
p5519
(lp5520
I18734712
aI132
asS'2100'
p5521
(lp5522
I18734844
aI83
asS'2107'
p5523
(lp5524
I18734927
aI430
asS'2106'
p5525
(lp5526
I18735357
aI1146
asS'2105'
p5527
(lp5528
I18736503
aI705
asS'2104'
p5529
(lp5530
I18737208
aI168
asS'2639'
p5531
(lp5532
I18737376
aI76
asS'2638'
p5533
(lp5534
I18737452
aI82
asS'635'
p5535
(lp5536
I12964634
aI76
asS'2635'
p5537
(lp5538
I18737534
aI107
asS'2634'
p5539
(lp5540
I18737641
aI523
asS'2637'
p5541
(lp5542
I18738164
aI91
asS'2636'
p5543
(lp5544
I18738255
aI100
asS'2631'
p5545
(lp5546
I18738355
aI923
asS'2630'
p5547
(lp5548
I18739278
aI319
asS'2633'
p5549
(lp5550
I18739597
aI428
asS'2632'
p5551
(lp5552
I18740025
aI834
asS'3438'
p5553
(lp5554
I18778875
aI36157
asS'1537'
p5555
(lp5556
I19151291
aI88
asS'878'
p5557
(lp5558
I18815104
aI106
asS'1536'
p5559
(lp5560
I8402907
aI488
asS'3430'
p5561
(lp5562
I1306505
aI36851
asS'3431'
p5563
(lp5564
I1343901
aI3332
asS'874'
p5565
(lp5566
I18815458
aI68
asS'3433'
p5567
(lp5568
I1347905
aI27768
asS'3434'
p5569
(lp5570
I1376155
aI1388
asS'873'
p5571
(lp5572
I1377619
aI60
asS'3436'
p5573
(lp5574
I1377988
aI47703
asS'3437'
p5575
(lp5576
I1426437
aI42298
asS'2741'
p5577
(lp5578
I1511731
aI699
asS'2740'
p5579
(lp5580
I1512505
aI938
asS'2743'
p5581
(lp5582
I1513518
aI197
asS'2742'
p5583
(lp5584
I9685483
aI723
asS'2745'
p5585
(lp5586
I9803401
aI361
asS'2744'
p5587
(lp5588
I1250218
aI567
asS'2747'
p5589
(lp5590
I1623670
aI306
asS'2746'
p5591
(lp5592
I2121026
aI748
asS'2749'
p5593
(lp5594
I1771533
aI595
asS'2748'
p5595
(lp5596
I1861856
aI298
asS'2039'
p5597
(lp5598
I18822272
aI186
asS'2038'
p5599
(lp5600
I876267
aI124
asS'890'
p5601
(lp5602
I18822523
aI210
asS'891'
p5603
(lp5604
I18822733
aI467
asS'892'
p5605
(lp5606
I18823200
aI467
asS'893'
p5607
(lp5608
I18823667
aI543
asS'894'
p5609
(lp5610
I18824210
aI493
asS'895'
p5611
(lp5612
I2069173
aI195
asS'896'
p5613
(lp5614
I18825283
aI83
asS'897'
p5615
(lp5616
I18825366
aI111
asS'909'
p5617
(lp5618
I14514228
aI82
asS'899'
p5619
(lp5620
I18825534
aI74
asS'3095'
p5621
(lp5622
I17262588
aI570
asS'3651'
p5623
(lp5624
I18825701
aI4852
asS'649'
p5625
(lp5626
I21385499
aI59
asS'1247'
p5627
(lp5628
I18824703
aI580
asS'648'
p5629
(lp5630
I18868325
aI58
asS'3236'
p5631
(lp5632
I18868383
aI32025
asS'3237'
p5633
(lp5634
I18900408
aI42157
asS'3544'
p5635
(lp5636
I18942565
aI11760
asS'3545'
p5637
(lp5638
I18954325
aI34584
asS'3546'
p5639
(lp5640
I18988909
aI27801
asS'3547'
p5641
(lp5642
I3650061
aI42987
asS'3540'
p5643
(lp5644
I19017290
aI22732
asS'3541'
p5645
(lp5646
I5572559
aI31613
asS'3542'
p5647
(lp5648
I19072472
aI24022
asS'3543'
p5649
(lp5650
I2958247
aI35529
asS'3235'
p5651
(lp5652
I19097174
aI8167
asS'3548'
p5653
(lp5654
I19105341
aI45950
asS'3549'
p5655
(lp5656
I6500321
aI30443
asS'1964'
p5657
(lp5658
I19151379
aI157
asS'260'
p5659
(lp5660
I26967083
aI74
asS'1965'
p5661
(lp5662
I19151536
aI205
asS'1538'
p5663
(lp5664
I21387096
aI88
asS'1614'
p5665
(lp5666
I3079370
aI610
asS'2965'
p5667
(lp5668
I12155251
aI186
asS'2964'
p5669
(lp5670
I1294818
aI182
asS'2967'
p5671
(lp5672
I3503459
aI1011
asS'3239'
p5673
(lp5674
I1023766
aI32538
asS'2961'
p5675
(lp5676
I19152979
aI593
asS'2960'
p5677
(lp5678
I19153572
aI88
asS'2963'
p5679
(lp5680
I19153660
aI556
asS'2962'
p5681
(lp5682
I19154216
aI556
asS'1780'
p5683
(lp5684
I823636
aI236
asS'1960'
p5685
(lp5686
I7419477
aI661
asS'1782'
p5687
(lp5688
I3595401
aI373
asS'1783'
p5689
(lp5690
I3617352
aI345
asS'1784'
p5691
(lp5692
I3617697
aI567
asS'1785'
p5693
(lp5694
I3618264
aI354
asS'1786'
p5695
(lp5696
I3618618
aI432
asS'1787'
p5697
(lp5698
I3619595
aI487
asS'3049'
p5699
(lp5700
I19155843
aI1019
asS'3048'
p5701
(lp5702
I19156862
aI1048
asS'1962'
p5703
(lp5704
I19157910
aI866
asS'3041'
p5705
(lp5706
I19158776
aI948
asS'3040'
p5707
(lp5708
I19159724
aI616
asS'3043'
p5709
(lp5710
I19160340
aI801
asS'3042'
p5711
(lp5712
I4045544
aI634
asS'3045'
p5713
(lp5714
I19161277
aI514
asS'3044'
p5715
(lp5716
I19161791
aI340
asS'3047'
p5717
(lp5718
I19162131
aI920
asS'3046'
p5719
(lp5720
I19163051
aI598
asS'1423'
p5721
(lp5722
I25770188
aI815
asS'1078'
p5723
(lp5724
I19163649
aI99
asS'1079'
p5725
(lp5726
I19163748
aI90
asS'1076'
p5727
(lp5728
I19163838
aI62
asS'1535'
p5729
(lp5730
I8825825
aI477
asS'1074'
p5731
(lp5732
I19163966
aI49
asS'1075'
p5733
(lp5734
I19164015
aI61
asS'1072'
p5735
(lp5736
I19164076
aI501
asS'1073'
p5737
(lp5738
I19164577
aI247
asS'1070'
p5739
(lp5740
I19164824
aI114
asS'1071'
p5741
(lp5742
I19164938
aI458
asS'1678'
p5743
(lp5744
I19165396
aI504
asS'1679'
p5745
(lp5746
I4631913
aI839
asS'3030'
p5747
(lp5748
I19165997
aI697
asS'1674'
p5749
(lp5750
I19166694
aI664
asS'1675'
p5751
(lp5752
I19167358
aI301
asS'1676'
p5753
(lp5754
I19167659
aI857
asS'1677'
p5755
(lp5756
I19168516
aI907
asS'1670'
p5757
(lp5758
I19169423
aI256
asS'1671'
p5759
(lp5760
I19169679
aI1061
asS'1672'
p5761
(lp5762
I19170740
aI460
asS'1673'
p5763
(lp5764
I19171200
aI392
asS'1094'
p5765
(lp5766
I19171592
aI58
asS'1095'
p5767
(lp5768
I19171650
aI67
asS'1096'
p5769
(lp5770
I19171717
aI139
asS'1097'
p5771
(lp5772
I19171856
aI199
asS'678'
p5773
(lp5774
I5119684
aI491
asS'679'
p5775
(lp5776
I5120175
aI665
asS'1092'
p5777
(lp5778
I19172244
aI83
asS'1534'
p5779
(lp5780
I9759585
aI721
asS'674'
p5781
(lp5782
I19172399
aI161
asS'675'
p5783
(lp5784
I19172560
aI961
asS'676'
p5785
(lp5786
I19173521
aI91
asS'677'
p5787
(lp5788
I19173612
aI493
asS'670'
p5789
(lp5790
I5124335
aI1232
asS'671'
p5791
(lp5792
I5126491
aI583
asS'672'
p5793
(lp5794
I19176178
aI89
asS'854'
p5795
(lp5796
I14783609
aI817
asS'3135'
p5797
(lp5798
I19176334
aI947
asS'3134'
p5799
(lp5800
I19177281
aI862
asS'3137'
p5801
(lp5802
I19178143
aI519
asS'3136'
p5803
(lp5804
I19178662
aI680
asS'3131'
p5805
(lp5806
I19179342
aI689
asS'3130'
p5807
(lp5808
I19180031
aI808
asS'3133'
p5809
(lp5810
I19180839
aI612
asS'3132'
p5811
(lp5812
I19181451
aI753
asS'3139'
p5813
(lp5814
I19182204
aI505
asS'3138'
p5815
(lp5816
I19182709
aI1110
asS'3396'
p5817
(lp5818
I26359744
aI4620
asS'1533'
p5819
(lp5820
I19185922
aI433
asS'1418'
p5821
(lp5822
I19186355
aI102
asS'1419'
p5823
(lp5824
I19186457
aI107
asS'1410'
p5825
(lp5826
I19187111
aI764
asS'1411'
p5827
(lp5828
I19187875
aI759
asS'1412'
p5829
(lp5830
I19188634
aI976
asS'1413'
p5831
(lp5832
I19189610
aI484
asS'1414'
p5833
(lp5834
I19190094
aI110
asS'1415'
p5835
(lp5836
I19190204
aI996
asS'1416'
p5837
(lp5838
I19191200
aI465
asS'1417'
p5839
(lp5840
I19191665
aI385
asS'1322'
p5841
(lp5842
I19192050
aI61
asS'1323'
p5843
(lp5844
I19192111
aI779
asS'1320'
p5845
(lp5846
I19192890
aI75
asS'1532'
p5847
(lp5848
I10874680
aI72
asS'1326'
p5849
(lp5850
I19193029
aI619
asS'1327'
p5851
(lp5852
I19193648
aI669
asS'1324'
p5853
(lp5854
I19194317
aI771
asS'1325'
p5855
(lp5856
I19195088
aI852
asS'1328'
p5857
(lp5858
I19195940
aI70
asS'1329'
p5859
(lp5860
I19196010
aI80
asS'4202'
p5861
(lp5862
I19196792
aI9960
asS'4203'
p5863
(lp5864
I19206752
aI20166
asS'4200'
p5865
(lp5866
I19226918
aI31971
asS'4201'
p5867
(lp5868
I21333984
aI44491
asS'4204'
p5869
(lp5870
I19258950
aI42441
asS'1531'
p5871
(lp5872
I19301391
aI209
asS'1524'
p5873
(lp5874
I6751745
aI520
asS'1525'
p5875
(lp5876
I6753741
aI854
asS'1526'
p5877
(lp5878
I6756353
aI511
asS'1527'
p5879
(lp5880
I6757772
aI778
asS'1252'
p5881
(lp5882
I19314317
aI498
asS'1521'
p5883
(lp5884
I18499696
aI119
asS'1522'
p5885
(lp5886
I6778238
aI77
asS'1523'
p5887
(lp5888
I6780522
aI616
asS'1528'
p5889
(lp5890
I19315618
aI531
asS'1529'
p5891
(lp5892
I19316149
aI380
asS'1258'
p5893
(lp5894
I19316529
aI454
asS'646'
p5895
(lp5896
I18825608
aI93
asS'308'
p5897
(lp5898
I19317367
aI61
asS'309'
p5899
(lp5900
I19317428
aI61
asS'3959'
p5901
(lp5902
I19317489
aI1536
asS'3958'
p5903
(lp5904
I19319025
aI4263
asS'652'
p5905
(lp5906
I23732367
aI76
asS'3953'
p5907
(lp5908
I3465631
aI28139
asS'3952'
p5909
(lp5910
I13341441
aI40283
asS'3951'
p5911
(lp5912
I12888114
aI30028
asS'3950'
p5913
(lp5914
I10518848
aI39917
asS'3957'
p5915
(lp5916
I6964416
aI33171
asS'3956'
p5917
(lp5918
I7074714
aI33995
asS'3955'
p5919
(lp5920
I7109446
aI11445
asS'3954'
p5921
(lp5922
I7120891
aI35079
asS'4116'
p5923
(lp5924
I19324345
aI40009
asS'4117'
p5925
(lp5926
I19364354
aI2906
asS'4114'
p5927
(lp5928
I19367260
aI7873
asS'4115'
p5929
(lp5930
I19375133
aI45087
asS'4112'
p5931
(lp5932
I19420220
aI48977
asS'4113'
p5933
(lp5934
I19469197
aI28509
asS'4110'
p5935
(lp5936
I19497706
aI35482
asS'4111'
p5937
(lp5938
I19533188
aI23503
asS'4118'
p5939
(lp5940
I19557739
aI21992
asS'4119'
p5941
(lp5942
I19579731
aI47313
asS'2858'
p5943
(lp5944
I19627787
aI640
asS'2978'
p5945
(lp5946
I19628633
aI716
asS'2979'
p5947
(lp5948
I19629349
aI1144
asS'3340'
p5949
(lp5950
I19630493
aI41950
asS'1966'
p5951
(lp5952
I19151741
aI155
asS'3058'
p5953
(lp5954
I19672443
aI536
asS'3059'
p5955
(lp5956
I19672979
aI768
asS'988'
p5957
(lp5958
I26978928
aI89
asS'3056'
p5959
(lp5960
I19724745
aI548
asS'2474'
p5961
(lp5962
I19725293
aI188
asS'3057'
p5963
(lp5964
I19725481
aI927
asS'3341'
p5965
(lp5966
I17177549
aI4746
asS'4062'
p5967
(lp5968
I8585638
aI14359
asS'4063'
p5969
(lp5970
I19748213
aI17958
asS'4060'
p5971
(lp5972
I19766171
aI15967
asS'4061'
p5973
(lp5974
I8603158
aI1687
asS'4066'
p5975
(lp5976
I8605048
aI42557
asS'4067'
p5977
(lp5978
I19821612
aI36174
asS'4064'
p5979
(lp5980
I19857786
aI11131
asS'4065'
p5981
(lp5982
I19868917
aI38103
asS'3052'
p5983
(lp5984
I19907020
aI938
asS'4068'
p5985
(lp5986
I19907958
aI35183
asS'4069'
p5987
(lp5988
I19943141
aI47163
asS'732'
p5989
(lp5990
I25890845
aI74
asS'3053'
p5991
(lp5992
I19998165
aI799
asS'79'
p5993
(lp5994
I17140299
aI96
asS'78'
p5995
(lp5996
I17140395
aI623
asS'980'
p5997
(lp5998
I26982094
aI340
asS'3603'
p5999
(lp6000
I19999327
aI47909
asS'3602'
p6001
(lp6002
I20047236
aI19039
asS'3601'
p6003
(lp6004
I20066275
aI30956
asS'2773'
p6005
(lp6006
I12682850
aI138
asS'3607'
p6007
(lp6008
I20119938
aI21396
asS'3606'
p6009
(lp6010
I20141334
aI39689
asS'3605'
p6011
(lp6012
I20181023
aI6386
asS'3604'
p6013
(lp6014
I20187409
aI3503
asS'3609'
p6015
(lp6016
I20190912
aI47657
asS'3608'
p6017
(lp6018
I20238569
aI18275
asS'2698'
p6019
(lp6020
I18067090
aI651
asS'984'
p6021
(lp6022
I26983130
aI70
asS'985'
p6023
(lp6024
I26983200
aI47
asS'623'
p6025
(lp6026
I8654598
aI73
asS'3032'
p6027
(lp6028
I23592790
aI799
asS'114'
p6029
(lp6030
I26983303
aI84
asS'2990'
p6031
(lp6032
I20273685
aI967
asS'2358'
p6033
(lp6034
I20274652
aI1019
asS'2359'
p6035
(lp6036
I20275671
aI899
asS'2352'
p6037
(lp6038
I20276570
aI142
asS'2353'
p6039
(lp6040
I20276712
aI479
asS'2350'
p6041
(lp6042
I20277191
aI184
asS'2351'
p6043
(lp6044
I20277375
aI95
asS'622'
p6045
(lp6046
I8654671
aI77
asS'2357'
p6047
(lp6048
I20277974
aI770
asS'2354'
p6049
(lp6050
I20278744
aI888
asS'2355'
p6051
(lp6052
I10913304
aI711
asS'2991'
p6053
(lp6054
I20279685
aI891
asS'112'
p6055
(lp6056
I26984498
aI94
asS'1898'
p6057
(lp6058
I20300405
aI162
asS'1899'
p6059
(lp6060
I20300567
aI250
asS'3739'
p6061
(lp6062
I20300817
aI7719
asS'3738'
p6063
(lp6064
I20308536
aI44267
asS'3737'
p6065
(lp6066
I11467620
aI42170
asS'3736'
p6067
(lp6068
I11520640
aI7671
asS'3735'
p6069
(lp6070
I11528311
aI12955
asS'3734'
p6071
(lp6072
I0
aI16645
asS'3733'
p6073
(lp6074
I11570361
aI9862
asS'1891'
p6075
(lp6076
I11580223
aI792
asS'3731'
p6077
(lp6078
I11581015
aI39395
asS'3730'
p6079
(lp6080
I11620410
aI30396
asS'2136'
p6081
(lp6082
I11669196
aI301
asS'2137'
p6083
(lp6084
I11806466
aI769
asS'2134'
p6085
(lp6086
I20356093
aI543
asS'2135'
p6087
(lp6088
I20356636
aI483
asS'2132'
p6089
(lp6090
I20357119
aI164
asS'2133'
p6091
(lp6092
I20357283
aI226
asS'2130'
p6093
(lp6094
I20357509
aI779
asS'1680'
p6095
(lp6096
I17145572
aI1204
asS'951'
p6097
(lp6098
I20358430
aI278
asS'950'
p6099
(lp6100
I20358708
aI550
asS'953'
p6101
(lp6102
I20359258
aI53
asS'952'
p6103
(lp6104
I20359311
aI62
asS'955'
p6105
(lp6106
I20359373
aI84
asS'1267'
p6107
(lp6108
I17183164
aI635
asS'2138'
p6109
(lp6110
I12181317
aI739
asS'2139'
p6111
(lp6112
I12182056
aI393
asS'2648'
p6113
(lp6114
I20397103
aI629
asS'2649'
p6115
(lp6116
I20397732
aI426
asS'2784'
p6117
(lp6118
I26992886
aI382
asS'2640'
p6119
(lp6120
I20398158
aI73
asS'2641'
p6121
(lp6122
I20398231
aI193
asS'2642'
p6123
(lp6124
I20398424
aI250
asS'2643'
p6125
(lp6126
I20398674
aI472
asS'2644'
p6127
(lp6128
I20399146
aI578
asS'2645'
p6129
(lp6130
I20399724
aI871
asS'2646'
p6131
(lp6132
I20400595
aI859
asS'2647'
p6133
(lp6134
I20401454
aI229
asS'3416'
p6135
(lp6136
I24826042
aI22444
asS'1441'
p6137
(lp6138
I26853411
aI577
asS'2340'
p6139
(lp6140
I22968080
aI563
asS'3429'
p6141
(lp6142
I20401683
aI17139
asS'3428'
p6143
(lp6144
I20418822
aI39840
asS'3423'
p6145
(lp6146
I20458662
aI28741
asS'3422'
p6147
(lp6148
I20487403
aI20940
asS'3421'
p6149
(lp6150
I20508343
aI37127
asS'3420'
p6151
(lp6152
I20545470
aI8921
asS'3427'
p6153
(lp6154
I20554391
aI6250
asS'3426'
p6155
(lp6156
I20560641
aI47164
asS'3425'
p6157
(lp6158
I20607805
aI17432
asS'3424'
p6159
(lp6160
I20625237
aI32976
asS'2002'
p6161
(lp6162
I20658213
aI1402
asS'2003'
p6163
(lp6164
I20659615
aI971
asS'2000'
p6165
(lp6166
I20660586
aI634
asS'2001'
p6167
(lp6168
I20661220
aI252
asS'2006'
p6169
(lp6170
I20661472
aI221
asS'2007'
p6171
(lp6172
I14513018
aI54
asS'2004'
p6173
(lp6174
I20662058
aI754
asS'2005'
p6175
(lp6176
I20662812
aI223
asS'3901'
p6177
(lp6178
I20663035
aI35387
asS'3033'
p6179
(lp6180
I20698422
aI932
asS'2008'
p6181
(lp6182
I20699354
aI247
asS'2009'
p6183
(lp6184
I20699601
aI158
asS'4187'
p6185
(lp6186
I20699759
aI4065
asS'506'
p6187
(lp6188
I12866239
aI60
asS'2118'
p6189
(lp6190
I21953067
aI191
asS'3331'
p6191
(lp6192
I20704438
aI43957
asS'2852'
p6193
(lp6194
I20748395
aI725
asS'1268'
p6195
(lp6196
I17177464
aI85
asS'3026'
p6197
(lp6198
I20749120
aI912
asS'3557'
p6199
(lp6200
I20750032
aI30785
asS'3556'
p6201
(lp6202
I477225
aI28608
asS'3555'
p6203
(lp6204
I20781183
aI13480
asS'3554'
p6205
(lp6206
I20794663
aI32995
asS'3553'
p6207
(lp6208
I20827658
aI37227
asS'3552'
p6209
(lp6210
I20864885
aI3674
asS'3551'
p6211
(lp6212
I20868559
aI47299
asS'3550'
p6213
(lp6214
I20915858
aI40461
asS'3559'
p6215
(lp6216
I20956319
aI14705
asS'3558'
p6217
(lp6218
I20971024
aI30360
asS'1263'
p6219
(lp6220
I21001384
aI241
asS'666'
p6221
(lp6222
I21001625
aI86
asS'717'
p6223
(lp6224
I21008057
aI259
asS'2176'
p6225
(lp6226
I21001711
aI868
asS'504'
p6227
(lp6228
I12872192
aI56
asS'1261'
p6229
(lp6230
I21002579
aI636
asS'2177'
p6231
(lp6232
I21003215
aI996
asS'2910'
p6233
(lp6234
I21004211
aI202
asS'2911'
p6235
(lp6236
I21004413
aI1255
asS'2912'
p6237
(lp6238
I14901929
aI557
asS'1798'
p6239
(lp6240
I14902963
aI160
asS'2914'
p6241
(lp6242
I21006300
aI524
asS'2915'
p6243
(lp6244
I21006824
aI542
asS'719'
p6245
(lp6246
I21007366
aI496
asS'2917'
p6247
(lp6248
I14913664
aI156
asS'2918'
p6249
(lp6250
I302959
aI715
asS'2919'
p6251
(lp6252
I475828
aI796
asS'1791'
p6253
(lp6254
I14919928
aI168
asS'1790'
p6255
(lp6256
I20704277
aI161
asS'713'
p6257
(lp6258
I21008499
aI74
asS'712'
p6259
(lp6260
I21008573
aI70
asS'1795'
p6261
(lp6262
I14926491
aI156
asS'1794'
p6263
(lp6264
I14926647
aI202
asS'661'
p6265
(lp6266
I21029045
aI202
asS'716'
p6267
(lp6268
I21008316
aI56
asS'660'
p6269
(lp6270
I21029247
aI88
asS'2178'
p6271
(lp6272
I21029335
aI886
asS'1069'
p6273
(lp6274
I21059616
aI110
asS'1068'
p6275
(lp6276
I21059726
aI82
asS'916'
p6277
(lp6278
I12762008
aI32
asS'1061'
p6279
(lp6280
I21060457
aI63
asS'1060'
p6281
(lp6282
I21060520
aI66
asS'1063'
p6283
(lp6284
I21060586
aI113
asS'1062'
p6285
(lp6286
I21060699
aI702
asS'1065'
p6287
(lp6288
I21061401
aI167
asS'1064'
p6289
(lp6290
I21061568
aI95
asS'1067'
p6291
(lp6292
I21061663
aI385
asS'1066'
p6293
(lp6294
I21062048
aI957
asS'3023'
p6295
(lp6296
I21063005
aI709
asS'1669'
p6297
(lp6298
I21063714
aI307
asS'1668'
p6299
(lp6300
I21064021
aI327
asS'1667'
p6301
(lp6302
I21064348
aI299
asS'1666'
p6303
(lp6304
I21064647
aI215
asS'1665'
p6305
(lp6306
I21064862
aI1707
asS'1664'
p6307
(lp6308
I21066569
aI914
asS'1663'
p6309
(lp6310
I21067483
aI168
asS'1662'
p6311
(lp6312
I21067651
aI242
asS'1661'
p6313
(lp6314
I21067893
aI125
asS'1660'
p6315
(lp6316
I21068018
aI67
asS'1087'
p6317
(lp6318
I16634383
aI278
asS'1086'
p6319
(lp6320
I16636968
aI159
asS'1085'
p6321
(lp6322
I16714889
aI112
asS'1084'
p6323
(lp6324
I16753811
aI410
asS'1083'
p6325
(lp6326
I16755581
aI547
asS'1082'
p6327
(lp6328
I16756811
aI113
asS'1081'
p6329
(lp6330
I16758339
aI81
asS'1080'
p6331
(lp6332
I16758925
aI85
asS'599'
p6333
(lp6334
I21069390
aI67
asS'598'
p6335
(lp6336
I21069457
aI304
asS'1089'
p6337
(lp6338
I21069761
aI66
asS'1088'
p6339
(lp6340
I21069827
aI602
asS'3140'
p6341
(lp6342
I21070429
aI622
asS'3141'
p6343
(lp6344
I16995624
aI567
asS'714'
p6345
(lp6346
I21008449
aI50
asS'3143'
p6347
(lp6348
I21072727
aI639
asS'3144'
p6349
(lp6350
I17000464
aI409
asS'3145'
p6351
(lp6352
I10622007
aI722
asS'3146'
p6353
(lp6354
I21075366
aI794
asS'1709'
p6355
(lp6356
I15890029
aI735
asS'3148'
p6357
(lp6358
I17002859
aI594
asS'3149'
p6359
(lp6360
I17003453
aI625
asS'2826'
p6361
(lp6362
I21077490
aI753
asS'2827'
p6363
(lp6364
I21078243
aI711
asS'2820'
p6365
(lp6366
I21078954
aI1049
asS'2821'
p6367
(lp6368
I21080003
aI591
asS'2822'
p6369
(lp6370
I21080594
aI411
asS'2823'
p6371
(lp6372
I21081005
aI658
asS'3386'
p6373
(lp6374
I21081663
aI41233
asS'3387'
p6375
(lp6376
I21122896
aI12778
asS'3384'
p6377
(lp6378
I21135674
aI8467
asS'3385'
p6379
(lp6380
I21144141
aI5038
asS'3382'
p6381
(lp6382
I21149179
aI805
asS'3383'
p6383
(lp6384
I21149984
aI44487
asS'3380'
p6385
(lp6386
I21194471
aI48392
asS'3381'
p6387
(lp6388
I21242863
aI45778
asS'3388'
p6389
(lp6390
I21288641
aI13663
asS'3021'
p6391
(lp6392
I17222025
aI1130
asS'1409'
p6393
(lp6394
I21306878
aI1047
asS'1408'
p6395
(lp6396
I21307925
aI931
asS'1403'
p6397
(lp6398
I21308856
aI610
asS'1402'
p6399
(lp6400
I21309466
aI356
asS'1401'
p6401
(lp6402
I21309822
aI378
asS'1400'
p6403
(lp6404
I21310200
aI263
asS'1407'
p6405
(lp6406
I21310463
aI104
asS'1406'
p6407
(lp6408
I21310567
aI118
asS'1405'
p6409
(lp6410
I21310685
aI105
asS'1404'
p6411
(lp6412
I21310790
aI550
asS'1546'
p6413
(lp6414
I21311340
aI77
asS'449'
p6415
(lp6416
I21311417
aI71
asS'448'
p6417
(lp6418
I21311488
aI66
asS'1339'
p6419
(lp6420
I21311554
aI88
asS'1338'
p6421
(lp6422
I21311642
aI94
asS'1491'
p6423
(lp6424
I14974616
aI892
asS'1547'
p6425
(lp6426
I21311736
aI127
asS'1335'
p6427
(lp6428
I18010329
aI96
asS'1334'
p6429
(lp6430
I18030546
aI623
asS'1337'
p6431
(lp6432
I18031323
aI90
asS'1336'
p6433
(lp6434
I18065082
aI100
asS'1331'
p6435
(lp6436
I18066507
aI583
asS'690'
p6437
(lp6438
I3541352
aI106
asS'1333'
p6439
(lp6440
I18068384
aI445
asS'1332'
p6441
(lp6442
I18068829
aI161
asS'691'
p6443
(lp6444
I3541458
aI399
asS'1542'
p6445
(lp6446
I21313856
aI774
asS'1631'
p6447
(lp6448
I27433529
aI395
asS'1543'
p6449
(lp6450
I21314630
aI1058
asS'3261'
p6451
(lp6452
I21315688
aI17983
asS'3201'
p6453
(lp6454
I18067827
aI557
asS'38'
p6455
(lp6456
I21333901
aI83
asS'1540'
p6457
(lp6458
I21378475
aI411
asS'3260'
p6459
(lp6460
I21378886
aI4614
asS'33'
p6461
(lp6462
I21383500
aI142
asS'32'
p6463
(lp6464
I21383642
aI80
asS'31'
p6465
(lp6466
I21383722
aI54
asS'30'
p6467
(lp6468
I21383776
aI106
asS'37'
p6469
(lp6470
I21383882
aI58
asS'36'
p6471
(lp6472
I21383940
aI148
asS'35'
p6473
(lp6474
I21384088
aI79
asS'34'
p6475
(lp6476
I21384167
aI52
asS'1241'
p6477
(lp6478
I18815032
aI72
asS'3093'
p6479
(lp6480
I2038569
aI535
asS'3090'
p6481
(lp6482
I8086138
aI677
asS'3091'
p6483
(lp6484
I8137728
aI800
asS'3096'
p6485
(lp6486
I8201482
aI757
asS'3097'
p6487
(lp6488
I8401981
aI926
asS'3094'
p6489
(lp6490
I12180151
aI1166
asS'1530'
p6491
(lp6492
I12173508
aI448
asS'1249'
p6493
(lp6494
I18868188
aI137
asS'3265'
p6495
(lp6496
I15327669
aI33401
asS'3098'
p6497
(lp6498
I21385790
aI534
asS'3099'
p6499
(lp6500
I19016710
aI580
asS'1539'
p6501
(lp6502
I21386937
aI159
asS'3264'
p6503
(lp6504
I15737890
aI45277
asS'339'
p6505
(lp6506
I21387184
aI111
asS'3267'
p6507
(lp6508
I15969693
aI43797
asS'335'
p6509
(lp6510
I21387363
aI559
asS'334'
p6511
(lp6512
I21387922
aI92
asS'337'
p6513
(lp6514
I21388014
aI71
asS'3266'
p6515
(lp6516
I16312708
aI16016
asS'331'
p6517
(lp6518
I21388227
aI117
asS'330'
p6519
(lp6520
I21388344
aI83
asS'333'
p6521
(lp6522
I21388427
aI151
asS'332'
p6523
(lp6524
I21388578
aI390
asS'4101'
p6525
(lp6526
I21388968
aI43602
asS'4100'
p6527
(lp6528
I21432570
aI18273
asS'4103'
p6529
(lp6530
I21450843
aI26338
asS'4102'
p6531
(lp6532
I21477181
aI7644
asS'4105'
p6533
(lp6534
I21484825
aI33641
asS'4104'
p6535
(lp6536
I21518466
aI22026
asS'4107'
p6537
(lp6538
I21540492
aI6979
asS'4106'
p6539
(lp6540
I21547471
aI37431
asS'4109'
p6541
(lp6542
I21584902
aI49197
asS'4108'
p6543
(lp6544
I21634099
aI11611
asS'3125'
p6545
(lp6546
I17306568
aI690
asS'1295'
p6547
(lp6548
I27624032
aI714
asS'2127'
p6549
(lp6550
I23928281
aI958
asS'3898'
p6551
(lp6552
I21694462
aI43073
asS'3899'
p6553
(lp6554
I21737535
aI49885
asS'2062'
p6555
(lp6556
I25036481
aI643
asS'1634'
p6557
(lp6558
I27434679
aI485
asS'3892'
p6559
(lp6560
I21787420
aI3728
asS'3893'
p6561
(lp6562
I21791148
aI49332
asS'3890'
p6563
(lp6564
I21840480
aI37096
asS'3891'
p6565
(lp6566
I21877576
aI14591
asS'3896'
p6567
(lp6568
I21892167
aI33513
asS'3897'
p6569
(lp6570
I21925680
aI25505
asS'3894'
p6571
(lp6572
I21951185
aI1882
asS'3895'
p6573
(lp6574
I12857336
aI4430
asS'3467'
p6575
(lp6576
I21953258
aI38794
asS'3466'
p6577
(lp6578
I21992052
aI4520
asS'653'
p6579
(lp6580
I23732443
aI142
asS'845'
p6581
(lp6582
I12849001
aI73
asS'3464'
p6583
(lp6584
I21996922
aI19327
asS'1635'
p6585
(lp6586
I27435164
aI371
asS'8'
p6587
(lp6588
I22016249
aI88
asS'3463'
p6589
(lp6590
I22016337
aI19863
asS'2119'
p6591
(lp6592
I22036200
aI146
asS'3462'
p6593
(lp6594
I22036346
aI34812
asS'1353'
p6595
(lp6596
I25907898
aI332
asS'1466'
p6597
(lp6598
I17335039
aI47
asS'4079'
p6599
(lp6600
I22071158
aI11805
asS'4078'
p6601
(lp6602
I21030221
aI29395
asS'4075'
p6603
(lp6604
I22129692
aI39841
asS'4074'
p6605
(lp6606
I22169533
aI18700
asS'4077'
p6607
(lp6608
I22188233
aI46734
asS'4076'
p6609
(lp6610
I7425865
aI11978
asS'4071'
p6611
(lp6612
I22262955
aI40496
asS'4070'
p6613
(lp6614
I7764321
aI31869
asS'4073'
p6615
(lp6616
I22326192
aI32352
asS'4072'
p6617
(lp6618
I22358544
aI21385
asS'3966'
p6619
(lp6620
I22379929
aI25649
asS'3967'
p6621
(lp6622
I22405578
aI36718
asS'3964'
p6623
(lp6624
I22442296
aI9877
asS'3965'
p6625
(lp6626
I22452173
aI2174
asS'3962'
p6627
(lp6628
I22454347
aI45417
asS'3963'
p6629
(lp6630
I22499764
aI13897
asS'3960'
p6631
(lp6632
I22513661
aI35815
asS'3961'
p6633
(lp6634
I25397703
aI4223
asS'3200'
p6635
(lp6636
I22595171
aI669
asS'1497'
p6637
(lp6638
I15008289
aI826
asS'1462'
p6639
(lp6640
I22595840
aI626
asS'3968'
p6641
(lp6642
I22596466
aI28314
asS'3969'
p6643
(lp6644
I22624780
aI29786
asS'2854'
p6645
(lp6646
I22654566
aI99
asS'3638'
p6647
(lp6648
I22673848
aI15626
asS'3639'
p6649
(lp6650
I22689474
aI45857
asS'3636'
p6651
(lp6652
I22735331
aI23954
asS'3637'
p6653
(lp6654
I22759285
aI50100
asS'3634'
p6655
(lp6656
I22809385
aI50468
asS'3635'
p6657
(lp6658
I22859853
aI15768
asS'3632'
p6659
(lp6660
I22875621
aI35617
asS'3633'
p6661
(lp6662
I22911238
aI16945
asS'3630'
p6663
(lp6664
I22928183
aI6959
asS'3631'
p6665
(lp6666
I22935142
aI8939
asS'1454'
p6667
(lp6668
I14358473
aI913
asS'3469'
p6669
(lp6670
I22944081
aI5081
asS'3468'
p6671
(lp6672
I22949162
aI15588
asS'1991'
p6673
(lp6674
I22964750
aI225
asS'2345'
p6675
(lp6676
I22964975
aI537
asS'2344'
p6677
(lp6678
I22965512
aI1072
asS'2347'
p6679
(lp6680
I22966584
aI167
asS'2346'
p6681
(lp6682
I22966751
aI228
asS'2341'
p6683
(lp6684
I22966979
aI1101
asS'3054'
p6685
(lp6686
I19726408
aI620
asS'2343'
p6687
(lp6688
I22968643
aI891
asS'2342'
p6689
(lp6690
I22969534
aI1121
asS'2349'
p6691
(lp6692
I22970655
aI274
asS'2348'
p6693
(lp6694
I22970929
aI90
asS'1455'
p6695
(lp6696
I14362302
aI670
asS'3253'
p6697
(lp6698
I22971019
aI11593
asS'2067'
p6699
(lp6700
I25038910
aI210
asS'3708'
p6701
(lp6702
I22982612
aI11834
asS'3709'
p6703
(lp6704
I22994446
aI23939
asS'1889'
p6705
(lp6706
I23018385
aI940
asS'1888'
p6707
(lp6708
I23019325
aI692
asS'1887'
p6709
(lp6710
I23020017
aI371
asS'1886'
p6711
(lp6712
I23020388
aI894
asS'3700'
p6713
(lp6714
I19727028
aI20632
asS'1884'
p6715
(lp6716
I23022130
aI602
asS'1883'
p6717
(lp6718
I23022732
aI195
asS'1882'
p6719
(lp6720
I23022927
aI190
asS'3704'
p6721
(lp6722
I22549476
aI45695
asS'3705'
p6723
(lp6724
I13195594
aI13570
asS'2121'
p6725
(lp6726
I23023510
aI120
asS'2120'
p6727
(lp6728
I23023630
aI144
asS'2123'
p6729
(lp6730
I23023774
aI179
asS'2122'
p6731
(lp6732
I23023953
aI196
asS'2125'
p6733
(lp6734
I23024149
aI758
asS'2124'
p6735
(lp6736
I23024907
aI162
asS'948'
p6737
(lp6738
I23025069
aI57
asS'949'
p6739
(lp6740
I23025126
aI343
asS'946'
p6741
(lp6742
I23025469
aI160
asS'947'
p6743
(lp6744
I23025629
aI60
asS'944'
p6745
(lp6746
I23025689
aI671
asS'1457'
p6747
(lp6748
I14366685
aI636
asS'942'
p6749
(lp6750
I23026456
aI654
asS'943'
p6751
(lp6752
I23027110
aI72
asS'940'
p6753
(lp6754
I23027182
aI389
asS'941'
p6755
(lp6756
I23027571
aI373
asS'3038'
p6757
(lp6758
I23027944
aI564
asS'569'
p6759
(lp6760
I27530235
aI60
asS'1594'
p6761
(lp6762
I24605927
aI561
asS'2410'
p6763
(lp6764
I23028508
aI394
asS'2659'
p6765
(lp6766
I23028902
aI170
asS'2658'
p6767
(lp6768
I23029072
aI187
asS'642'
p6769
(lp6770
I21384545
aI54
asS'565'
p6771
(lp6772
I27535072
aI48
asS'2653'
p6773
(lp6774
I23029259
aI90
asS'1450'
p6775
(lp6776
I14368732
aI119
asS'2651'
p6777
(lp6778
I23029934
aI749
asS'2650'
p6779
(lp6780
I23030683
aI724
asS'2657'
p6781
(lp6782
I23031407
aI646
asS'2656'
p6783
(lp6784
I23032053
aI579
asS'2655'
p6785
(lp6786
I23032632
aI189
asS'3039'
p6787
(lp6788
I5190167
aI810
asS'769'
p6789
(lp6790
I19152913
aI66
asS'132'
p6791
(lp6792
I23033077
aI57
asS'131'
p6793
(lp6794
I23033134
aI95
asS'3415'
p6795
(lp6796
I19673898
aI50847
asS'3412'
p6797
(lp6798
I19990304
aI7861
asS'3413'
p6799
(lp6800
I20256844
aI15175
asS'135'
p6801
(lp6802
I23033467
aI60
asS'134'
p6803
(lp6804
I23033527
aI101
asS'139'
p6805
(lp6806
I23033628
aI71
asS'138'
p6807
(lp6808
I23033699
aI113
asS'3418'
p6809
(lp6810
I23033812
aI35547
asS'3419'
p6811
(lp6812
I23069359
aI43289
asS'2019'
p6813
(lp6814
I23148008
aI696
asS'2018'
p6815
(lp6816
I23148704
aI551
asS'2920'
p6817
(lp6818
I27412051
aI706
asS'2015'
p6819
(lp6820
I23149255
aI700
asS'2014'
p6821
(lp6822
I23149955
aI164
asS'2017'
p6823
(lp6824
I23150119
aI784
asS'2016'
p6825
(lp6826
I23150903
aI675
asS'2011'
p6827
(lp6828
I23151578
aI147
asS'2010'
p6829
(lp6830
I23151725
aI145
asS'2013'
p6831
(lp6832
I23151870
aI95
asS'2012'
p6833
(lp6834
I23151965
aI145
asS'1452'
p6835
(lp6836
I14444072
aI65
asS'2926'
p6837
(lp6838
I27417667
aI463
asS'3562'
p6839
(lp6840
I23164759
aI29756
asS'3563'
p6841
(lp6842
I23194515
aI20573
asS'3560'
p6843
(lp6844
I23215088
aI25184
asS'1453'
p6845
(lp6846
I14509190
aI797
asS'3566'
p6847
(lp6848
I23271431
aI48707
asS'3567'
p6849
(lp6850
I23320138
aI49943
asS'3564'
p6851
(lp6852
I23370081
aI25648
asS'3565'
p6853
(lp6854
I23395729
aI11932
asS'3034'
p6855
(lp6856
I23407661
aI597
asS'3568'
p6857
(lp6858
I23408258
aI45324
asS'3569'
p6859
(lp6860
I1926545
aI46715
asS'3000'
p6861
(lp6862
I23454282
aI632
asS'2903'
p6863
(lp6864
I23454914
aI612
asS'2902'
p6865
(lp6866
I23455526
aI829
asS'2901'
p6867
(lp6868
I23456355
aI611
asS'2900'
p6869
(lp6870
I23456966
aI493
asS'708'
p6871
(lp6872
I23457459
aI92
asS'709'
p6873
(lp6874
I23457551
aI53
asS'2905'
p6875
(lp6876
I23457604
aI950
asS'3035'
p6877
(lp6878
I17366908
aI756
asS'704'
p6879
(lp6880
I23459054
aI174
asS'705'
p6881
(lp6882
I23459228
aI120
asS'706'
p6883
(lp6884
I23459348
aI80
asS'2908'
p6885
(lp6886
I18235944
aI126
asS'700'
p6887
(lp6888
I23459476
aI67
asS'701'
p6889
(lp6890
I23459543
aI66
asS'702'
p6891
(lp6892
I23459609
aI70
asS'703'
p6893
(lp6894
I23459679
aI55
asS'88'
p6895
(lp6896
I23460207
aI160
asS'89'
p6897
(lp6898
I23460367
aI147
asS'82'
p6899
(lp6900
I23496060
aI248
asS'83'
p6901
(lp6902
I23496308
aI87
asS'80'
p6903
(lp6904
I23496395
aI119
asS'81'
p6905
(lp6906
I23496514
aI65
asS'86'
p6907
(lp6908
I23496579
aI232
asS'87'
p6909
(lp6910
I23496811
aI115
asS'84'
p6911
(lp6912
I23496926
aI204
asS'85'
p6913
(lp6914
I23497130
aI83
asS'1256'
p6915
(lp6916
I19312926
aI56
asS'762'
p6917
(lp6918
I19154772
aI93
asS'1658'
p6919
(lp6920
I23497915
aI549
asS'1659'
p6921
(lp6922
I23498464
aI486
asS'2487'
p6923
(lp6924
I24800839
aI469
asS'1652'
p6925
(lp6926
I23498950
aI949
asS'1653'
p6927
(lp6928
I476624
aI601
asS'1650'
p6929
(lp6930
I23500514
aI910
asS'1651'
p6931
(lp6932
I23501424
aI897
asS'1656'
p6933
(lp6934
I23502321
aI95
asS'1657'
p6935
(lp6936
I23502416
aI402
asS'1654'
p6937
(lp6938
I23502818
aI461
asS'1655'
p6939
(lp6940
I1110134
aI311
asS'586'
p6941
(lp6942
I23503799
aI114
asS'587'
p6943
(lp6944
I23503913
aI69
asS'584'
p6945
(lp6946
I23503982
aI82
asS'3037'
p6947
(lp6948
I23459734
aI473
asS'763'
p6949
(lp6950
I19154865
aI148
asS'583'
p6951
(lp6952
I23505178
aI79
asS'580'
p6953
(lp6954
I23505257
aI78
asS'1987'
p6955
(lp6956
I10874516
aI164
asS'1984'
p6957
(lp6958
I23505398
aI106
asS'588'
p6959
(lp6960
I23505504
aI69
asS'589'
p6961
(lp6962
I23505573
aI91
asS'3153'
p6963
(lp6964
I23505664
aI1006
asS'3152'
p6965
(lp6966
I23506670
aI774
asS'3151'
p6967
(lp6968
I23507444
aI471
asS'3150'
p6969
(lp6970
I840348
aI736
asS'3157'
p6971
(lp6972
I23508226
aI837
asS'3156'
p6973
(lp6974
I23509063
aI642
asS'3155'
p6975
(lp6976
I846995
aI55
asS'3154'
p6977
(lp6978
I847050
aI609
asS'2837'
p6979
(lp6980
I23510899
aI524
asS'2836'
p6981
(lp6982
I876391
aI460
asS'3159'
p6983
(lp6984
I876851
aI146
asS'3158'
p6985
(lp6986
I886105
aI515
asS'2833'
p6987
(lp6988
I23512635
aI822
asS'2832'
p6989
(lp6990
I23513457
aI585
asS'2831'
p6991
(lp6992
I23514042
aI134
asS'1983'
p6993
(lp6994
I23514176
aI114
asS'3391'
p6995
(lp6996
I1112006
aI12059
asS'3390'
p6997
(lp6998
I1157355
aI11571
asS'1434'
p6999
(lp7000
I23514477
aI479
asS'1435'
p7001
(lp7002
I23514956
aI676
asS'1432'
p7003
(lp7004
I23515632
aI479
asS'1433'
p7005
(lp7006
I23516111
aI1026
asS'1430'
p7007
(lp7008
I23517137
aI598
asS'1431'
p7009
(lp7010
I23517735
aI252
asS'3399'
p7011
(lp7012
I23517987
aI32292
asS'3398'
p7013
(lp7014
I20280576
aI19829
asS'1981'
p7015
(lp7016
I23550722
aI149
asS'1438'
p7017
(lp7018
I23550871
aI235
asS'1439'
p7019
(lp7020
I1271776
aI434
asS'1260'
p7021
(lp7022
I21005812
aI488
asS'1299'
p7023
(lp7024
I27621522
aI90
asS'1541'
p7025
(lp7026
I23552802
aI414
asS'458'
p7027
(lp7028
I1347814
aI91
asS'1349'
p7029
(lp7030
I23552087
aI715
asS'450'
p7031
(lp7032
I23553891
aI86
asS'451'
p7033
(lp7034
I23553977
aI91
asS'1342'
p7035
(lp7036
I1515635
aI69
asS'453'
p7037
(lp7038
I1573607
aI62
asS'454'
p7039
(lp7040
I1656386
aI80
asS'455'
p7041
(lp7042
I1727306
aI66
asS'1346'
p7043
(lp7044
I1857805
aI567
asS'1347'
p7045
(lp7046
I1904321
aI606
asS'3702'
p7047
(lp7048
I23555104
aI24724
asS'318'
p7049
(lp7050
I17511778
aI88
asS'3703'
p7051
(lp7052
I23579828
aI12962
asS'564'
p7053
(lp7054
I27535021
aI51
asS'1885'
p7055
(lp7056
I23021282
aI848
asS'766'
p7057
(lp7058
I19155338
aI63
asS'517'
p7059
(lp7060
I8654451
aI91
asS'3701'
p7061
(lp7062
I23593589
aI34210
asS'3263'
p7063
(lp7064
I23627799
aI12375
asS'3706'
p7065
(lp7066
I23672611
aI34187
asS'832'
p7067
(lp7068
I10622729
aI69
asS'1266'
p7069
(lp7070
I17183799
aI89
asS'3707'
p7071
(lp7072
I23706798
aI24982
asS'1502'
p7073
(lp7074
I2482919
aI460
asS'1503'
p7075
(lp7076
I2486213
aI656
asS'1500'
p7077
(lp7078
I2555743
aI79
asS'1501'
p7079
(lp7080
I2619621
aI242
asS'1506'
p7081
(lp7082
I2648016
aI751
asS'1507'
p7083
(lp7084
I2649609
aI528
asS'1504'
p7085
(lp7086
I2650279
aI583
asS'1505'
p7087
(lp7088
I2650862
aI537
asS'3085'
p7089
(lp7090
I23732744
aI658
asS'3084'
p7091
(lp7092
I23733402
aI585
asS'3087'
p7093
(lp7094
I2914088
aI1220
asS'3086'
p7095
(lp7096
I2957628
aI619
asS'767'
p7097
(lp7098
I19155401
aI223
asS'311'
p7099
(lp7100
I17528490
aI70
asS'3083'
p7101
(lp7102
I2995055
aI512
asS'659'
p7103
(lp7104
I2999892
aI72
asS'3943'
p7105
(lp7106
I23736000
aI852
asS'833'
p7107
(lp7108
I10622798
aI94
asS'3945'
p7109
(lp7110
I23776862
aI11595
asS'315'
p7111
(lp7112
I17528893
aI58
asS'314'
p7113
(lp7114
I17528951
aI104
asS'3885'
p7115
(lp7116
I3595774
aI21578
asS'3884'
p7117
(lp7118
I23807891
aI17300
asS'3887'
p7119
(lp7120
I23825191
aI45993
asS'3886'
p7121
(lp7122
I23871184
aI30155
asS'3881'
p7123
(lp7124
I23901339
aI26942
asS'3880'
p7125
(lp7126
I3620082
aI3837
asS'3883'
p7127
(lp7128
I23929239
aI48639
asS'3882'
p7129
(lp7130
I23977878
aI18107
asS'2126'
p7131
(lp7132
I23995985
aI276
asS'3889'
p7133
(lp7134
I23996261
aI6465
asS'3888'
p7135
(lp7136
I24002726
aI12721
asS'2129'
p7137
(lp7138
I24015447
aI314
asS'2128'
p7139
(lp7140
I24015761
aI559
asS'631'
p7141
(lp7142
I18474944
aI135
asS'568'
p7143
(lp7144
I27530156
aI79
asS'945'
p7145
(lp7146
I23026360
aI96
asS'752'
p7147
(lp7148
I12862068
aI57
asS'2816'
p7149
(lp7150
I27530879
aI789
asS'4008'
p7151
(lp7152
I24016859
aI953
asS'4009'
p7153
(lp7154
I24017812
aI30662
asS'1376'
p7155
(lp7156
I24048474
aI78
asS'4000'
p7157
(lp7158
I24048552
aI40946
asS'4001'
p7159
(lp7160
I24089498
aI22528
asS'4002'
p7161
(lp7162
I24112026
aI25766
asS'4003'
p7163
(lp7164
I24137792
aI40900
asS'4004'
p7165
(lp7166
I24178692
aI41388
asS'4005'
p7167
(lp7168
I24220080
aI19364
asS'4006'
p7169
(lp7170
I24239444
aI11927
asS'4007'
p7171
(lp7172
I24251371
aI14297
asS'3971'
p7173
(lp7174
I20359834
aI37190
asS'3970'
p7175
(lp7176
I17047185
aI4178
asS'3973'
p7177
(lp7178
I17121429
aI12877
asS'3972'
p7179
(lp7180
I5427070
aI43481
asS'3975'
p7181
(lp7182
I5470633
aI27273
asS'3974'
p7183
(lp7184
I5497906
aI28374
asS'3977'
p7185
(lp7186
I17308893
aI25204
asS'3976'
p7187
(lp7188
I17359770
aI1553
asS'3979'
p7189
(lp7190
I24268252
aI39302
asS'3978'
p7191
(lp7192
I24307554
aI48992
asS'328'
p7193
(lp7194
I24356546
aI61
asS'329'
p7195
(lp7196
I24356607
aI657
asS'3629'
p7197
(lp7198
I24379573
aI32269
asS'3628'
p7199
(lp7200
I24411842
aI10971
asS'758'
p7201
(lp7202
I12863472
aI253
asS'3621'
p7203
(lp7204
I24422813
aI11629
asS'3620'
p7205
(lp7206
I2022530
aI15278
asS'3623'
p7207
(lp7208
I24435122
aI47140
asS'3622'
p7209
(lp7210
I24482262
aI34419
asS'3625'
p7211
(lp7212
I24516681
aI48199
asS'3624'
p7213
(lp7214
I24564880
aI39371
asS'3627'
p7215
(lp7216
I6134851
aI8336
asS'3626'
p7217
(lp7218
I6193930
aI20668
asS'1881'
p7219
(lp7220
I23023117
aI179
asS'2330'
p7221
(lp7222
I24604578
aI247
asS'1595'
p7223
(lp7224
I12865689
aI550
asS'2332'
p7225
(lp7226
I24604995
aI162
asS'2333'
p7227
(lp7228
I24605157
aI217
asS'2334'
p7229
(lp7230
I24605374
aI193
asS'2335'
p7231
(lp7232
I24605567
aI200
asS'2336'
p7233
(lp7234
I24605767
aI160
asS'2337'
p7235
(lp7236
I2473887
aI306
asS'2338'
p7237
(lp7238
I24606488
aI304
asS'2339'
p7239
(lp7240
I24606792
aI589
asS'1341'
p7241
(lp7242
I24607381
aI468
asS'3072'
p7243
(lp7244
I24607849
aI1008
asS'1596'
p7245
(lp7246
I12866391
aI97
asS'1880'
p7247
(lp7248
I23023296
aI214
asS'1591'
p7249
(lp7250
I12866488
aI1099
asS'835'
p7251
(lp7252
I10623353
aI108
asS'1590'
p7253
(lp7254
I12867587
aI828
asS'3715'
p7255
(lp7256
I24610992
aI48686
asS'3714'
p7257
(lp7258
I24659678
aI3603
asS'3717'
p7259
(lp7260
I24663281
aI32004
asS'4120'
p7261
(lp7262
I17892914
aI37169
asS'3711'
p7263
(lp7264
I24705679
aI5845
asS'3710'
p7265
(lp7266
I6710395
aI31218
asS'3713'
p7267
(lp7268
I24712694
aI28499
asS'3712'
p7269
(lp7270
I24741193
aI34751
asS'1592'
p7271
(lp7272
I24775944
aI430
asS'3719'
p7273
(lp7274
I24776374
aI7696
asS'3718'
p7275
(lp7276
I24784070
aI10362
asS'4126'
p7277
(lp7278
I24794432
aI3999
asS'3078'
p7279
(lp7280
I24798431
aI728
asS'1569'
p7281
(lp7282
I27621137
aI280
asS'3079'
p7283
(lp7284
I24799159
aI305
asS'2488'
p7285
(lp7286
I24799464
aI372
asS'2489'
p7287
(lp7288
I24799836
aI231
asS'1343'
p7289
(lp7290
I23554158
aI66
asS'2950'
p7291
(lp7292
I20272968
aI717
asS'2484'
p7293
(lp7294
I24801308
aI787
asS'2485'
p7295
(lp7296
I24802095
aI648
asS'2482'
p7297
(lp7298
I24802743
aI539
asS'2483'
p7299
(lp7300
I24803282
aI1399
asS'2480'
p7301
(lp7302
I24804681
aI681
asS'2481'
p7303
(lp7304
I7415975
aI562
asS'3252'
p7305
(lp7306
I24805477
aI13771
asS'2248'
p7307
(lp7308
I24819248
aI534
asS'2249'
p7309
(lp7310
I24819782
aI666
asS'2652'
p7311
(lp7312
I23029349
aI585
asS'2244'
p7313
(lp7314
I24820448
aI173
asS'2245'
p7315
(lp7316
I24820621
aI925
asS'2246'
p7317
(lp7318
I24821546
aI557
asS'2953'
p7319
(lp7320
I12872445
aI468
asS'2240'
p7321
(lp7322
I24822807
aI147
asS'2241'
p7323
(lp7324
I24822954
aI238
asS'2242'
p7325
(lp7326
I24823192
aI236
asS'2243'
p7327
(lp7328
I24823428
aI173
asS'2464'
p7329
(lp7330
I7729509
aI197
asS'2465'
p7331
(lp7332
I7730247
aI215
asS'2466'
p7333
(lp7334
I7763557
aI135
asS'2467'
p7335
(lp7336
I7763864
aI205
asS'2460'
p7337
(lp7338
I17361323
aI80
asS'2461'
p7339
(lp7340
I18372389
aI67
asS'2462'
p7341
(lp7342
I7797633
aI99
asS'2463'
p7343
(lp7344
I14881708
aI103
asS'2468'
p7345
(lp7346
I7803339
aI146
asS'2469'
p7347
(lp7348
I14980630
aI392
asS'3401'
p7349
(lp7350
I7803717
aI13184
asS'3400'
p7351
(lp7352
I7817217
aI37321
asS'3403'
p7353
(lp7354
I17511866
aI16482
asS'3402'
p7355
(lp7356
I17649711
aI37886
asS'3405'
p7357
(lp7358
I18053307
aI11775
asS'3404'
p7359
(lp7360
I18068990
aI2408
asS'3407'
p7361
(lp7362
I18329383
aI43006
asS'3406'
p7363
(lp7364
I18481363
aI13890
asS'3409'
p7365
(lp7366
I7972169
aI26871
asS'3408'
p7367
(lp7368
I8045493
aI3205
asS'2654'
p7369
(lp7370
I23032821
aI147
asS'1020'
p7371
(lp7372
I12873886
aI81
asS'133'
p7373
(lp7374
I23032968
aI109
asS'1188'
p7375
(lp7376
I27539801
aI639
asS'3417'
p7377
(lp7378
I24878537
aI24268
asS'1189'
p7379
(lp7380
I27540440
aI82
asS'3414'
p7381
(lp7382
I24947103
aI47511
asS'2068'
p7383
(lp7384
I24994614
aI131
asS'2069'
p7385
(lp7386
I24994745
aI241
asS'2798'
p7387
(lp7388
I24994986
aI805
asS'130'
p7389
(lp7390
I23033229
aI87
asS'1187'
p7391
(lp7392
I27540888
aI82
asS'2792'
p7393
(lp7394
I4250550
aI68
asS'2793'
p7395
(lp7396
I8649973
aI69
asS'2790'
p7397
(lp7398
I8647694
aI93
asS'2791'
p7399
(lp7400
I8648673
aI101
asS'2796'
p7401
(lp7402
I8649392
aI108
asS'2797'
p7403
(lp7404
I8651833
aI116
asS'2794'
p7405
(lp7406
I11867955
aI896
asS'2795'
p7407
(lp7408
I5125567
aI924
asS'1185'
p7409
(lp7410
I27541479
aI402
asS'3410'
p7411
(lp7412
I25075979
aI47822
asS'1182'
p7413
(lp7414
I27541881
aI355
asS'3411'
p7415
(lp7416
I25162526
aI32229
asS'3255'
p7417
(lp7418
I25194755
aI31379
asS'1183'
p7419
(lp7420
I27542236
aI355
asS'1180'
p7421
(lp7422
I27542591
aI602
asS'1181'
p7423
(lp7424
I27543193
aI521
asS'3579'
p7425
(lp7426
I25328550
aI31577
asS'3578'
p7427
(lp7428
I25360127
aI37576
asS'3575'
p7429
(lp7430
I25401926
aI46679
asS'3574'
p7431
(lp7432
I25448605
aI21239
asS'3577'
p7433
(lp7434
I9917332
aI37059
asS'3256'
p7435
(lp7436
I14737792
aI40338
asS'3571'
p7437
(lp7438
I25502599
aI35020
asS'3570'
p7439
(lp7440
I25537619
aI8237
asS'3573'
p7441
(lp7442
I25545856
aI42938
asS'3572'
p7443
(lp7444
I25588794
aI28672
asS'2666'
p7445
(lp7446
I25617466
aI494
asS'2667'
p7447
(lp7448
I25617960
aI845
asS'2664'
p7449
(lp7450
I25618805
aI332
asS'2665'
p7451
(lp7452
I25619137
aI736
asS'2662'
p7453
(lp7454
I25619873
aI205
asS'2663'
p7455
(lp7456
I25620078
aI188
asS'2660'
p7457
(lp7458
I25620266
aI133
asS'2661'
p7459
(lp7460
I25620399
aI172
asS'722'
p7461
(lp7462
I27545493
aI54
asS'2668'
p7463
(lp7464
I25621434
aI693
asS'2669'
p7465
(lp7466
I12383557
aI881
asS'3668'
p7467
(lp7468
I25622728
aI8221
asS'2938'
p7469
(lp7470
I25630949
aI683
asS'2939'
p7471
(lp7472
I25631632
aI717
asS'2936'
p7473
(lp7474
I25632349
aI711
asS'2937'
p7475
(lp7476
I25633060
aI630
asS'2934'
p7477
(lp7478
I25633690
aI144
asS'2935'
p7479
(lp7480
I25633834
aI134
asS'2932'
p7481
(lp7482
I25633968
aI375
asS'2933'
p7483
(lp7484
I25634343
aI254
asS'2930'
p7485
(lp7486
I25634597
aI474
asS'2931'
p7487
(lp7488
I25635071
aI1633
asS'3799'
p7489
(lp7490
I25636704
aI11870
asS'1837'
p7491
(lp7492
I8072197
aI394
asS'1645'
p7493
(lp7494
I25676509
aI542
asS'1644'
p7495
(lp7496
I25677051
aI293
asS'1647'
p7497
(lp7498
I25677344
aI723
asS'1646'
p7499
(lp7500
I25678067
aI573
asS'1641'
p7501
(lp7502
I25678640
aI979
asS'1640'
p7503
(lp7504
I25679619
aI130
asS'1643'
p7505
(lp7506
I25679749
aI410
asS'1642'
p7507
(lp7508
I25680159
aI407
asS'1649'
p7509
(lp7510
I25680566
aI540
asS'1648'
p7511
(lp7512
I25681106
aI74
asS'728'
p7513
(lp7514
I27550463
aI479
asS'729'
p7515
(lp7516
I27550942
aI41
asS'3797'
p7517
(lp7518
I25723072
aI30420
asS'579'
p7519
(lp7520
I25753492
aI56
asS'1839'
p7521
(lp7522
I8086966
aI231
asS'573'
p7523
(lp7524
I25753636
aI100
asS'572'
p7525
(lp7526
I25753736
aI89
asS'571'
p7527
(lp7528
I25753825
aI100
asS'570'
p7529
(lp7530
I25753925
aI78
asS'577'
p7531
(lp7532
I25754003
aI55
asS'576'
p7533
(lp7534
I25754058
aI64
asS'575'
p7535
(lp7536
I25754122
aI101
asS'574'
p7537
(lp7538
I25754223
aI100
asS'3195'
p7539
(lp7540
I21996572
aI350
asS'2808'
p7541
(lp7542
I25754323
aI400
asS'2809'
p7543
(lp7544
I25754723
aI479
asS'3793'
p7545
(lp7546
I25755202
aI9877
asS'3168'
p7547
(lp7548
I25765079
aI197
asS'3169'
p7549
(lp7550
I25765276
aI206
asS'3166'
p7551
(lp7552
I12703296
aI625
asS'3167'
p7553
(lp7554
I7155970
aI372
asS'3164'
p7555
(lp7556
I12748956
aI782
asS'3165'
p7557
(lp7558
I12750450
aI746
asS'3162'
p7559
(lp7560
I7418102
aI406
asS'3163'
p7561
(lp7562
I7424935
aI930
asS'3160'
p7563
(lp7564
I7727854
aI1275
asS'3161'
p7565
(lp7566
I7763692
aI172
asS'1421'
p7567
(lp7568
I25769239
aI512
asS'2406'
p7569
(lp7570
I12853114
aI633
asS'1997'
p7571
(lp7572
I19185047
aI875
asS'1422'
p7573
(lp7574
I25771003
aI102
asS'3368'
p7575
(lp7576
I23640174
aI32437
asS'3369'
p7577
(lp7578
I12843654
aI5121
asS'1427'
p7579
(lp7580
I25772251
aI599
asS'2407'
p7581
(lp7582
I12854284
aI456
asS'3364'
p7583
(lp7584
I12850539
aI2575
asS'3365'
p7585
(lp7586
I24357264
aI22309
asS'3366'
p7587
(lp7588
I25774163
aI9729
asS'3367'
p7589
(lp7590
I25783892
aI24798
asS'3360'
p7591
(lp7592
I25808690
aI20335
asS'3361'
p7593
(lp7594
I10883052
aI30252
asS'3362'
p7595
(lp7596
I25829210
aI34197
asS'3363'
p7597
(lp7598
I25863407
aI26192
asS'731'
p7599
(lp7600
I25889599
aI537
asS'730'
p7601
(lp7602
I25890136
aI600
asS'733'
p7603
(lp7604
I25890736
aI109
asS'938'
p7605
(lp7606
I8134459
aI46
asS'735'
p7607
(lp7608
I25890919
aI98
asS'734'
p7609
(lp7610
I25891017
aI110
asS'737'
p7611
(lp7612
I25891127
aI68
asS'736'
p7613
(lp7614
I25891195
aI87
asS'739'
p7615
(lp7616
I25891282
aI58
asS'2402'
p7617
(lp7618
I3505079
aI1196
asS'2403'
p7619
(lp7620
I25891411
aI187
asS'1359'
p7621
(lp7622
I25906458
aI830
asS'1358'
p7623
(lp7624
I25907288
aI453
asS'469'
p7625
(lp7626
I25907741
aI71
asS'2400'
p7627
(lp7628
I4633295
aI523
asS'465'
p7629
(lp7630
I10986391
aI54
asS'464'
p7631
(lp7632
I12973333
aI742
asS'467'
p7633
(lp7634
I12974259
aI83
asS'2401'
p7635
(lp7636
I5127074
aI796
asS'1357'
p7637
(lp7638
I13137592
aI68
asS'460'
p7639
(lp7640
I13193805
aI57
asS'1355'
p7641
(lp7642
I13193862
aI86
asS'1200'
p7643
(lp7644
I12920474
aI460
asS'2907'
p7645
(lp7646
I27431674
aI579
asS'4054'
p7647
(lp7648
I25911218
aI19208
asS'1749'
p7649
(lp7650
I25622127
aI601
asS'452'
p7651
(lp7652
I23554068
aI90
asS'1273'
p7653
(lp7654
I25962919
aI199
asS'2158'
p7655
(lp7656
I25963118
aI329
asS'2159'
p7657
(lp7658
I25963447
aI151
asS'1519'
p7659
(lp7660
I25963598
aI741
asS'2408'
p7661
(lp7662
I14200102
aI389
asS'1515'
p7663
(lp7664
I25978982
aI413
asS'1514'
p7665
(lp7666
I25979395
aI525
asS'1517'
p7667
(lp7668
I25979920
aI978
asS'2409'
p7669
(lp7670
I8403395
aI381
asS'1511'
p7671
(lp7672
I14514033
aI140
asS'1510'
p7673
(lp7674
I25981907
aI149
asS'1513'
p7675
(lp7676
I25982056
aI69
asS'1512'
p7677
(lp7678
I25982125
aI105
asS'3031'
p7679
(lp7680
I25982230
aI754
asS'959'
p7681
(lp7682
I20355948
aI89
asS'281'
p7683
(lp7684
I26707168
aI262
asS'3439'
p7685
(lp7686
I25982984
aI18129
asS'3395'
p7687
(lp7688
I26001113
aI47525
asS'1637'
p7689
(lp7690
I27436132
aI698
asS'1275'
p7691
(lp7692
I26049044
aI121
asS'4058'
p7693
(lp7694
I26049165
aI31149
asS'958'
p7695
(lp7696
I20356037
aI56
asS'3129'
p7697
(lp7698
I17302623
aI571
asS'3184'
p7699
(lp7700
I26080314
aI374
asS'3185'
p7701
(lp7702
I26080688
aI309
asS'3186'
p7703
(lp7704
I26080997
aI222
asS'3187'
p7705
(lp7706
I26081219
aI260
asS'3180'
p7707
(lp7708
I26081479
aI442
asS'3181'
p7709
(lp7710
I26081921
aI723
asS'585'
p7711
(lp7712
I23504064
aI1068
asS'3183'
p7713
(lp7714
I26083544
aI636
asS'3188'
p7715
(lp7716
I26084180
aI274
asS'3189'
p7717
(lp7718
I26084454
aI404
asS'1896'
p7719
(lp7720
I20353217
aI158
asS'3397'
p7721
(lp7722
I26107183
aI3327
asS'582'
p7723
(lp7724
I23505132
aI46
asS'3109'
p7725
(lp7726
I26110510
aI380
asS'4019'
p7727
(lp7728
I26110890
aI3208
asS'4018'
p7729
(lp7730
I26114098
aI963
asS'2112'
p7731
(lp7732
I23453582
aI700
asS'48'
p7733
(lp7734
I27617752
aI897
asS'4013'
p7735
(lp7736
I26115061
aI33176
asS'4012'
p7737
(lp7738
I13997917
aI1940
asS'4011'
p7739
(lp7740
I26195693
aI30303
asS'3783'
p7741
(lp7742
I26148237
aI47456
asS'1897'
p7743
(lp7744
I11570223
aI138
asS'4016'
p7745
(lp7746
I26302372
aI18696
asS'4015'
p7747
(lp7748
I26321068
aI38676
asS'4014'
p7749
(lp7750
I17004078
aI43107
asS'357'
p7751
(lp7752
I26364364
aI91
asS'356'
p7753
(lp7754
I26364455
aI58
asS'355'
p7755
(lp7756
I26364513
aI81
asS'954'
p7757
(lp7758
I20359457
aI103
asS'3988'
p7759
(lp7760
I17073320
aI48109
asS'3989'
p7761
(lp7762
I9813577
aI17525
asS'351'
p7763
(lp7764
I26364899
aI100
asS'350'
p7765
(lp7766
I26364999
aI110
asS'3984'
p7767
(lp7768
I26365109
aI17765
asS'3985'
p7769
(lp7770
I26382874
aI49604
asS'3986'
p7771
(lp7772
I26432478
aI42835
asS'3987'
p7773
(lp7774
I26475313
aI43501
asS'3980'
p7775
(lp7776
I26518814
aI26936
asS'3981'
p7777
(lp7778
I26545750
aI32560
asS'3982'
p7779
(lp7780
I16345498
aI49275
asS'3983'
p7781
(lp7782
I17150120
aI26530
asS'3107'
p7783
(lp7784
I26578440
aI432
asS'3612'
p7785
(lp7786
I26578872
aI2262
asS'43'
p7787
(lp7788
I27619704
aI80
asS'3613'
p7789
(lp7790
I26581134
aI48270
asS'41'
p7791
(lp7792
I27620677
aI80
asS'1033'
p7793
(lp7794
I12868840
aI872
asS'2323'
p7795
(lp7796
I26651491
aI586
asS'2322'
p7797
(lp7798
I18066112
aI395
asS'2321'
p7799
(lp7800
I26652156
aI800
asS'2320'
p7801
(lp7802
I26652956
aI774
asS'2327'
p7803
(lp7804
I26653730
aI455
asS'2326'
p7805
(lp7806
I26654185
aI473
asS'2325'
p7807
(lp7808
I26654658
aI374
asS'2324'
p7809
(lp7810
I18235306
aI638
asS'3234'
p7811
(lp7812
I19040022
aI32450
asS'2329'
p7813
(lp7814
I26655139
aI157
asS'2328'
p7815
(lp7816
I26655296
aI157
asS'1445'
p7817
(lp7818
I26655453
aI515
asS'484'
p7819
(lp7820
I27434609
aI70
asS'289'
p7821
(lp7822
I26655968
aI76
asS'3618'
p7823
(lp7824
I19302033
aI10893
asS'1444'
p7825
(lp7826
I26656145
aI317
asS'3619'
p7827
(lp7828
I26656580
aI50588
asS'1793'
p7829
(lp7830
I23164538
aI221
asS'5'
p7831
(lp7832
I19258889
aI61
asS'283'
p7833
(lp7834
I26707522
aI55
asS'282'
p7835
(lp7836
I26707577
aI583
asS'285'
p7837
(lp7838
I26708160
aI83
asS'284'
p7839
(lp7840
I26708243
aI621
asS'287'
p7841
(lp7842
I26708864
aI97
asS'1442'
p7843
(lp7844
I20359706
aI128
asS'3760'
p7845
(lp7846
I26709044
aI12151
asS'3761'
p7847
(lp7848
I26721195
aI44619
asS'3762'
p7849
(lp7850
I26765814
aI37620
asS'3763'
p7851
(lp7852
I26803434
aI33879
asS'3764'
p7853
(lp7854
I26837313
aI16098
asS'3765'
p7855
(lp7856
I6662201
aI47439
asS'3766'
p7857
(lp7858
I26853988
aI15883
asS'3767'
p7859
(lp7860
I26869871
aI48930
asS'3768'
p7861
(lp7862
I26918801
aI33734
asS'3769'
p7863
(lp7864
I26952535
aI13903
asS'1116'
p7865
(lp7866
I26966438
aI477
asS'263'
p7867
(lp7868
I26966915
aI76
asS'262'
p7869
(lp7870
I26966991
aI52
asS'261'
p7871
(lp7872
I26967043
aI40
asS'3561'
p7873
(lp7874
I23240272
aI31159
asS'267'
p7875
(lp7876
I26967157
aI83
asS'266'
p7877
(lp7878
I26967240
aI75
asS'1792'
p7879
(lp7880
I19556691
aI1048
asS'264'
p7881
(lp7882
I26967704
aI80
asS'286'
p7883
(lp7884
I26708961
aI83
asS'269'
p7885
(lp7886
I26967784
aI64
asS'268'
p7887
(lp7888
I26967848
aI80
asS'1290'
p7889
(lp7890
I27622312
aI1076
asS'2499'
p7891
(lp7892
I26968010
aI1077
asS'2498'
p7893
(lp7894
I26969087
aI538
asS'1291'
p7895
(lp7896
I27623388
aI46
asS'1893'
p7897
(lp7898
I20355649
aI299
asS'2491'
p7899
(lp7900
I26970071
aI343
asS'2490'
p7901
(lp7902
I19186564
aI547
asS'2493'
p7903
(lp7904
I26971091
aI449
asS'2492'
p7905
(lp7906
I26971540
aI461
asS'2495'
p7907
(lp7908
I26972001
aI281
asS'2494'
p7909
(lp7910
I19196090
aI702
asS'2497'
p7911
(lp7912
I26972619
aI819
asS'2496'
p7913
(lp7914
I21386324
aI613
asS'2193'
p7915
(lp7916
I26973825
aI347
asS'1294'
p7917
(lp7918
I27623558
aI474
asS'2259'
p7919
(lp7920
I26974602
aI220
asS'2258'
p7921
(lp7922
I26974822
aI447
asS'2257'
p7923
(lp7924
I26975269
aI145
asS'2256'
p7925
(lp7926
I26975414
aI203
asS'2255'
p7927
(lp7928
I26975617
aI229
asS'2254'
p7929
(lp7930
I19627044
aI743
asS'2253'
p7931
(lp7932
I26976217
aI809
asS'2252'
p7933
(lp7934
I26977026
aI887
asS'2251'
p7935
(lp7936
I26977913
aI495
asS'2250'
p7937
(lp7938
I26978408
aI125
asS'2477'
p7939
(lp7940
I26978533
aI175
asS'2476'
p7941
(lp7942
I26978708
aI220
asS'2475'
p7943
(lp7944
I19673747
aI151
asS'3224'
p7945
(lp7946
I15462425
aI11863
asS'2473'
p7947
(lp7948
I26979079
aI167
asS'2472'
p7949
(lp7950
I26979246
aI139
asS'2471'
p7951
(lp7952
I26979385
aI899
asS'2470'
p7953
(lp7954
I26980284
aI1216
asS'982'
p7955
(lp7956
I26981500
aI473
asS'983'
p7957
(lp7958
I26981973
aI121
asS'2830'
p7959
(lp7960
I26656462
aI118
asS'981'
p7961
(lp7962
I26982434
aI431
asS'986'
p7963
(lp7964
I26982865
aI136
asS'987'
p7965
(lp7966
I26983001
aI129
asS'2479'
p7967
(lp7968
I20272019
aI721
asS'2478'
p7969
(lp7970
I20272740
aI160
asS'115'
p7971
(lp7972
I26983247
aI56
asS'252'
p7973
(lp7974
I4588857
aI469
asS'117'
p7975
(lp7976
I26983387
aI98
asS'116'
p7977
(lp7978
I26983485
aI410
asS'111'
p7979
(lp7980
I26983895
aI485
asS'110'
p7981
(lp7982
I26984380
aI51
asS'113'
p7983
(lp7984
I26984431
aI67
asS'2199'
p7985
(lp7986
I6586253
aI147
asS'3244'
p7987
(lp7988
I8367157
aI32652
asS'119'
p7989
(lp7990
I26984592
aI55
asS'118'
p7991
(lp7992
I26984647
aI64
asS'3432'
p7993
(lp7994
I26984711
aI7602
asS'2785'
p7995
(lp7996
I26992313
aI573
asS'3227'
p7997
(lp7998
I8403776
aI22439
asS'2787'
p7999
(lp8000
I26993268
aI833
asS'2786'
p8001
(lp8002
I26994101
aI951
asS'2781'
p8003
(lp8004
I26995052
aI253
asS'2780'
p8005
(lp8006
I26995305
aI479
asS'2783'
p8007
(lp8008
I26995784
aI182
asS'2782'
p8009
(lp8010
I26995966
aI124
asS'2789'
p8011
(lp8012
I26996090
aI105
asS'2788'
p8013
(lp8014
I26996195
aI177
asS'1797'
p8015
(lp8016
I26996372
aI153
asS'2079'
p8017
(lp8018
I26996525
aI83
asS'2078'
p8019
(lp8020
I26996608
aI535
asS'2073'
p8021
(lp8022
I26997143
aI196
asS'2072'
p8023
(lp8024
I26997339
aI197
asS'2071'
p8025
(lp8026
I26997536
aI196
asS'2070'
p8027
(lp8028
I26997732
aI94
asS'2077'
p8029
(lp8030
I26997826
aI350
asS'2076'
p8031
(lp8032
I26998176
aI373
asS'2075'
p8033
(lp8034
I26998549
aI229
asS'2074'
p8035
(lp8036
I26998778
aI231
asS'1388'
p8037
(lp8038
I23499899
aI615
asS'1796'
p8039
(lp8040
I26999009
aI200
asS'1035'
p8041
(lp8042
I12887609
aI505
asS'1330'
p8043
(lp8044
I18067741
aI86
asS'3221'
p8045
(lp8046
I26999209
aI38679
asS'1389'
p8047
(lp8048
I23503279
aI520
asS'3508'
p8049
(lp8050
I27037888
aI34063
asS'3509'
p8051
(lp8052
I27071951
aI25021
asS'1026'
p8053
(lp8054
I21645710
aI448
asS'3500'
p8055
(lp8056
I27096972
aI15789
asS'3501'
p8057
(lp8058
I27112761
aI5900
asS'3502'
p8059
(lp8060
I27118661
aI45974
asS'3503'
p8061
(lp8062
I27164635
aI37886
asS'3504'
p8063
(lp8064
I27202521
aI9871
asS'3505'
p8065
(lp8066
I27212392
aI40781
asS'3506'
p8067
(lp8068
I27253173
aI31092
asS'3204'
p8069
(lp8070
I19747660
aI553
asS'641'
p8071
(lp8072
I21384219
aI85
asS'2670'
p8073
(lp8074
I27328737
aI505
asS'2060'
p8075
(lp8076
I25034375
aI1222
asS'2672'
p8077
(lp8078
I27329348
aI218
asS'2675'
p8079
(lp8080
I27329566
aI122
asS'2674'
p8081
(lp8082
I27329688
aI874
asS'2677'
p8083
(lp8084
I27330562
aI106
asS'1446'
p8085
(lp8086
I26655032
aI107
asS'2679'
p8087
(lp8088
I27330749
aI657
asS'2678'
p8089
(lp8090
I27331406
aI168
asS'1209'
p8091
(lp8092
I25766192
aI102
asS'3220'
p8093
(lp8094
I27331574
aI41506
asS'2929'
p8095
(lp8096
I27373080
aI864
asS'2928'
p8097
(lp8098
I27373944
aI849
asS'4027'
p8099
(lp8100
I27374793
aI36329
asS'2921'
p8101
(lp8102
I27411122
aI929
asS'2565'
p8103
(lp8104
I18498349
aI203
asS'2923'
p8105
(lp8106
I27412757
aI966
asS'2922'
p8107
(lp8108
I27413723
aI1130
asS'2925'
p8109
(lp8110
I27414853
aI1104
asS'2924'
p8111
(lp8112
I27415957
aI1012
asS'2927'
p8113
(lp8114
I27416969
aI698
asS'2564'
p8115
(lp8116
I18498552
aI91
asS'3394'
p8117
(lp8118
I27418130
aI13544
asS'1208'
p8119
(lp8120
I25769157
aI82
asS'3223'
p8121
(lp8122
I10146711
aI50605
asS'2906'
p8123
(lp8124
I27432253
aI780
asS'1986'
p8125
(lp8126
I10669914
aI136
asS'3215'
p8127
(lp8128
I4155709
aI50428
asS'3216'
p8129
(lp8130
I4250618
aI42302
asS'1985'
p8131
(lp8132
I3082147
aI162
asS'3210'
p8133
(lp8134
I4597066
aI34847
asS'3211'
p8135
(lp8136
I809599
aI14037
asS'3212'
p8137
(lp8138
I4861061
aI9246
asS'3213'
p8139
(lp8140
I4924070
aI33030
asS'1638'
p8141
(lp8142
I27436830
aI616
asS'1639'
p8143
(lp8144
I27437446
aI75
asS'2904'
p8145
(lp8146
I23458554
aI500
asS'3218'
p8147
(lp8148
I27437521
aI49117
asS'3219'
p8149
(lp8150
I27486638
aI18755
asS'1988'
p8151
(lp8152
I27505393
aI449
asS'1989'
p8153
(lp8154
I27505842
aI814
asS'1781'
p8155
(lp8156
I830777
aI552
asS'3222'
p8157
(lp8158
I27506656
aI23333
asS'2909'
p8159
(lp8160
I27529989
aI167
asS'2815'
p8161
(lp8162
I24016320
aI465
asS'2814'
p8163
(lp8164
I24016785
aI74
asS'2817'
p8165
(lp8166
I27530295
aI584
asS'707'
p8167
(lp8168
I23459428
aI48
asS'2811'
p8169
(lp8170
I27531668
aI714
asS'2810'
p8171
(lp8172
I27532382
aI746
asS'2813'
p8173
(lp8174
I27533128
aI443
asS'2812'
p8175
(lp8176
I27533571
aI1151
asS'560'
p8177
(lp8178
I27534722
aI75
asS'561'
p8179
(lp8180
I27534797
aI110
asS'562'
p8181
(lp8182
I27534907
aI55
asS'563'
p8183
(lp8184
I27534962
aI59
asS'2819'
p8185
(lp8186
I24434442
aI680
asS'2818'
p8187
(lp8188
I24604444
aI134
asS'566'
p8189
(lp8190
I27535120
aI68
asS'567'
p8191
(lp8192
I27535188
aI79
asS'3179'
p8193
(lp8194
I27535267
aI475
asS'3178'
p8195
(lp8196
I27535742
aI51
asS'3171'
p8197
(lp8198
I27535793
aI393
asS'3170'
p8199
(lp8200
I27536186
aI304
asS'3173'
p8201
(lp8202
I27536490
aI476
asS'3172'
p8203
(lp8204
I27536966
aI649
asS'3175'
p8205
(lp8206
I27537615
aI609
asS'3174'
p8207
(lp8208
I27538224
aI394
asS'2945'
p8209
(lp8210
I14907783
aI680
asS'3176'
p8211
(lp8212
I27539089
aI712
asS'2179'
p8213
(lp8214
I21059808
aI649
asS'3379'
p8215
(lp8216
I24848486
aI30051
asS'3378'
p8217
(lp8218
I24902805
aI44298
asS'3377'
p8219
(lp8220
I21646158
aI48304
asS'3376'
p8221
(lp8222
I24996325
aI38050
asS'3375'
p8223
(lp8224
I22303451
aI22741
asS'3374'
p8225
(lp8226
I25039120
aI36859
asS'3373'
p8227
(lp8228
I25123801
aI38725
asS'3372'
p8229
(lp8230
I25226134
aI46238
asS'3371'
p8231
(lp8232
I25272372
aI14295
asS'3370'
p8233
(lp8234
I25286667
aI41883
asS'726'
p8235
(lp8236
I27543714
aI332
asS'727'
p8237
(lp8238
I27544046
aI388
asS'724'
p8239
(lp8240
I27544434
aI987
asS'725'
p8241
(lp8242
I27545421
aI72
asS'1748'
p8243
(lp8244
I25620571
aI863
asS'3217'
p8245
(lp8246
I6847319
aI11192
asS'720'
p8247
(lp8248
I27545583
aI119
asS'721'
p8249
(lp8250
I27545702
aI368
asS'1744'
p8251
(lp8252
I27546070
aI549
asS'1745'
p8253
(lp8254
I27546619
aI654
asS'1746'
p8255
(lp8256
I27547273
aI423
asS'1747'
p8257
(lp8258
I27547696
aI1073
asS'1740'
p8259
(lp8260
I27548769
aI554
asS'1741'
p8261
(lp8262
I27549323
aI1140
asS'1742'
p8263
(lp8264
I25681180
aI604
asS'1743'
p8265
(lp8266
I25722589
aI483
asS'1164'
p8267
(lp8268
I27550983
aI464
asS'1165'
p8269
(lp8270
I27551447
aI485
asS'1166'
p8271
(lp8272
I27551932
aI839
asS'1167'
p8273
(lp8274
I27552771
aI423
asS'1160'
p8275
(lp8276
I27553194
aI671
asS'3308'
p8277
(lp8278
I15010686
aI34817
asS'640'
p8279
(lp8280
I21384304
aI96
asS'1163'
p8281
(lp8282
I27555174
aI370
asS'3309'
p8283
(lp8284
I27555544
aI26686
asS'1168'
p8285
(lp8286
I27582230
aI271
asS'1169'
p8287
(lp8288
I27582501
aI817
asS'3092'
p8289
(lp8290
I27583318
aI960
asS'3304'
p8291
(lp8292
I27584278
aI25947
asS'472'
p8293
(lp8294
I27610225
aI64
asS'2913'
p8295
(lp8296
I27610289
aI745
asS'3305'
p8297
(lp8298
I27611034
aI6718
asS'1864'
p8299
(lp8300
I18558971
aI140
asS'3196'
p8301
(lp8302
I8945951
aI457
asS'46'
p8303
(lp8304
I27618735
aI610
asS'47'
p8305
(lp8306
I27619345
aI92
asS'44'
p8307
(lp8308
I27619437
aI82
asS'3786'
p8309
(lp8310
I16328724
aI16710
asS'42'
p8311
(lp8312
I27619599
aI105
asS'2034'
p8313
(lp8314
I20703824
aI453
asS'40'
p8315
(lp8316
I27619784
aI893
asS'3214'
p8317
(lp8318
I26084858
aI22325
asS'1568'
p8319
(lp8320
I27620757
aI380
asS'1380'
p8321
(lp8322
I23550279
aI443
asS'1298'
p8323
(lp8324
I27621417
aI105
asS'471'
p8325
(lp8326
I20279632
aI53
asS'1788'
p8327
(lp8328
I19151896
aI740
asS'1560'
p8329
(lp8330
I18778774
aI101
asS'1561'
p8331
(lp8332
I19165900
aI97
asS'1562'
p8333
(lp8334
I26967928
aI82
asS'1563'
p8335
(lp8336
I26969625
aI272
asS'1564'
p8337
(lp8338
I26970414
aI677
asS'1565'
p8339
(lp8340
I26973438
aI387
asS'1566'
p8341
(lp8342
I26974172
aI430
asS'477'
p8343
(lp8344
I20397024
aI79
asS'1713'
p8345
(lp8346
I27624746
aI587
asS'474'
p8347
(lp8348
I27625333
aI68
asS'1712'
p8349
(lp8350
I27625401
aI305
asS'591'
p8351
(lp8352
I21068085
aI130
asS'2033'
p8353
(lp8354
I18818091
aI1198
asS'1711'
p8355
(lp8356
I27625778
aI924
asS'1381'
p8357
(lp8358
I23551106
aI981
asS'1710'
p8359
(lp8360
I27626756
aI662
asS'1789'
p8361
(lp8362
I19152636
aI87
asS'1717'
p8363
(lp8364
I27627418
aI555
asS'1716'
p8365
(lp8366
I27627973
aI225
asS'1366'
p8367
(lp8368
I27628615
aI981
asS'1715'
p8369
(lp8370
I27628198
aI131
asS'590'
p8371
(lp8372
I21068215
aI90
asS'2032'
p8373
(lp8374
I18819289
aI432
asS'1201'
p8375
(lp8376
I27628329
aI106
asS'3507'
p8377
(lp8378
I27284265
aI44307
asS'3197'
p8379
(lp8380
I20780817
aI366
asS'1367'
p8381
(lp8382
I2650137
aI142
asS'470'
p8383
(lp8384
I20272900
aI68
asS'3194'
p8385
(lp8386
I9249922
aI367
asS'3193'
p8387
(lp8388
I9484969
aI310
asS'3192'
p8389
(lp8390
I9801507
aI457
asS'3191'
p8391
(lp8392
I9860730
aI267
asS'3190'
p8393
(lp8394
I9916922
aI305
asS'3728'
p8395
(lp8396
I27632282
aI27726
asS'478'
p8397
(lp8398
I27660008
aI47
asS'479'
p8399
(lp8400
I27660055
aI287
asS'2916'
p8401
(lp8402
I27660342
aI973
asS'3699'
p8403
(lp8404
I27661315
aI47299
asS'3199'
p8405
(lp8406
I10706614
aI779
asS'3198'
p8407
(lp8408
I839068
aI330
as.