(dp0
S'56'
p1
(lp2
I5755
aI95
asS'54'
p3
(lp4
I5554
aI133
asS'42'
p5
(lp6
I4329
aI68
asS'48'
p7
(lp8
I5038
aI184
asS'43'
p9
(lp10
I4397
aI120
asS'60'
p11
(lp12
I6455
aI243
asS'61'
p13
(lp14
I6698
aI171
asS'62'
p15
(lp16
I6869
aI73
asS'63'
p17
(lp18
I6942
aI67
asS'64'
p19
(lp20
I7009
aI49
asS'49'
p21
(lp22
I5222
aI67
asS'52'
p23
(lp24
I5371
aI40
asS'53'
p25
(lp26
I5411
aI143
asS'24'
p27
(lp28
I1885
aI28
asS'25'
p29
(lp30
I1913
aI43
asS'26'
p31
(lp32
I1956
aI46
asS'27'
p33
(lp34
I2002
aI43
asS'20'
p35
(lp36
I1579
aI55
asS'21'
p37
(lp38
I1634
aI76
asS'22'
p39
(lp40
I1710
aI132
asS'23'
p41
(lp42
I1842
aI43
asS'46'
p43
(lp44
I4747
aI141
asS'47'
p45
(lp46
I4888
aI150
asS'44'
p47
(lp48
I4517
aI67
asS'45'
p49
(lp50
I4584
aI163
asS'28'
p51
(lp52
I2045
aI118
asS'29'
p53
(lp54
I2163
aI99
asS'40'
p55
(lp56
I3886
aI185
asS'41'
p57
(lp58
I4071
aI258
asS'1'
p59
(lp60
I0
aI84
asS'3'
p61
(lp62
I147
aI67
asS'2'
p63
(lp64
I84
aI63
asS'5'
p65
(lp66
I442
aI173
asS'4'
p67
(lp68
I214
aI228
asS'7'
p69
(lp70
I724
aI173
asS'6'
p71
(lp72
I615
aI109
asS'9'
p73
(lp74
I963
aI66
asS'8'
p75
(lp76
I897
aI66
asS'51'
p77
(lp78
I5330
aI41
asS'39'
p79
(lp80
I3757
aI129
asS'38'
p81
(lp82
I3622
aI135
asS'59'
p83
(lp84
I6276
aI179
asS'58'
p85
(lp86
I6079
aI197
asS'11'
p87
(lp88
I1069
aI38
asS'10'
p89
(lp90
I1029
aI40
asS'13'
p91
(lp92
I1134
aI31
asS'12'
p93
(lp94
I1107
aI27
asS'15'
p95
(lp96
I1247
aI82
asS'14'
p97
(lp98
I1165
aI82
asS'17'
p99
(lp100
I1422
aI37
asS'16'
p101
(lp102
I1329
aI93
asS'19'
p103
(lp104
I1557
aI22
asS'18'
p105
(lp106
I1459
aI98
asS'31'
p107
(lp108
I2339
aI252
asS'30'
p109
(lp110
I2262
aI77
asS'37'
p111
(lp112
I3443
aI179
asS'36'
p113
(lp114
I3380
aI63
asS'35'
p115
(lp116
I3220
aI160
asS'34'
p117
(lp118
I3093
aI127
asS'33'
p119
(lp120
I2748
aI345
asS'55'
p121
(lp122
I5687
aI68
asS'32'
p123
(lp124
I2591
aI157
asS'57'
p125
(lp126
I5850
aI229
asS'50'
p127
(lp128
I5289
aI41
as.