(dp0
S'3734'
p1
(lp2
I11943296
aI11410
asS'4026'
p3
(lp4
I17202689
aI32444
asS'3724'
p5
(lp6
I11761299
aI16835
asS'4024'
p7
(lp8
I17166442
aI30092
asS'4025'
p9
(lp10
I17196534
aI6155
asS'4022'
p11
(lp12
I17148149
aI6270
asS'4023'
p13
(lp14
I17154419
aI12023
asS'4020'
p15
(lp16
I17122066
aI1719
asS'3725'
p17
(lp18
I11778134
aI36308
asS'3798'
p19
(lp20
I13154809
aI29723
asS'4028'
p21
(lp22
I17260504
aI1347
asS'4029'
p23
(lp24
I17261851
aI27654
asS'344'
p25
(lp26
I109576
aI157
asS'345'
p27
(lp28
I109733
aI181
asS'346'
p29
(lp30
I109914
aI182
asS'347'
p31
(lp32
I110096
aI169
asS'340'
p33
(lp34
I108861
aI186
asS'341'
p35
(lp36
I109047
aI157
asS'342'
p37
(lp38
I109204
aI186
asS'343'
p39
(lp40
I109390
aI186
asS'2918'
p41
(lp42
I1887250
aI1139
asS'3996'
p43
(lp44
I16678078
aI27722
asS'3995'
p45
(lp46
I16670042
aI8036
asS'3994'
p47
(lp48
I16647893
aI22149
asS'348'
p49
(lp50
I110265
aI167
asS'349'
p51
(lp52
I110432
aI145
asS'3991'
p53
(lp54
I16585582
aI28895
asS'3990'
p55
(lp56
I16582733
aI2849
asS'3530'
p57
(lp58
I8121117
aI29682
asS'3002'
p59
(lp60
I1975871
aI1442
asS'2919'
p61
(lp62
I1888389
aI1306
asS'1653'
p63
(lp64
I788826
aI1049
asS'3556'
p65
(lp66
I8620655
aI19775
asS'2318'
p67
(lp68
I1369231
aI625
asS'2319'
p69
(lp70
I1369856
aI2254
asS'2316'
p71
(lp72
I1366055
aI984
asS'2317'
p73
(lp74
I1367039
aI2192
asS'2314'
p75
(lp76
I1363098
aI2225
asS'2315'
p77
(lp78
I1365323
aI732
asS'2312'
p79
(lp80
I1361623
aI344
asS'2313'
p81
(lp82
I1361967
aI1131
asS'2310'
p83
(lp84
I1359892
aI1096
asS'2311'
p85
(lp86
I1360988
aI635
asS'298'
p87
(lp88
I92167
aI759
asS'299'
p89
(lp90
I92926
aI295
asS'296'
p91
(lp92
I91762
aI214
asS'297'
p93
(lp94
I91976
aI191
asS'294'
p95
(lp96
I91419
aI145
asS'295'
p97
(lp98
I91564
aI198
asS'292'
p99
(lp100
I91005
aI219
asS'293'
p101
(lp102
I91224
aI195
asS'290'
p103
(lp104
I90677
aI152
asS'291'
p105
(lp106
I90829
aI176
asS'3773'
p107
(lp108
I12740174
aI695
asS'3772'
p109
(lp110
I12722359
aI17815
asS'3771'
p111
(lp112
I12705971
aI16388
asS'3770'
p113
(lp114
I12690983
aI14988
asS'3777'
p115
(lp116
I12807115
aI33006
asS'3776'
p117
(lp118
I12774958
aI32157
asS'3775'
p119
(lp120
I12756909
aI18049
asS'3774'
p121
(lp122
I12740869
aI16040
asS'2147'
p123
(lp124
I1210536
aI1326
asS'3779'
p125
(lp126
I12863540
aI15039
asS'3778'
p127
(lp128
I12840121
aI23419
asS'270'
p129
(lp130
I81763
aI193
asS'271'
p131
(lp132
I81956
aI309
asS'272'
p133
(lp134
I82265
aI989
asS'273'
p135
(lp136
I83254
aI299
asS'274'
p137
(lp138
I83553
aI327
asS'275'
p139
(lp140
I83880
aI184
asS'276'
p141
(lp142
I84064
aI572
asS'277'
p143
(lp144
I84636
aI195
asS'278'
p145
(lp146
I84831
aI1214
asS'279'
p147
(lp148
I86045
aI191
asS'3465'
p149
(lp150
I6829837
aI15694
asS'3211'
p151
(lp152
I2309620
aI9656
asS'1780'
p153
(lp154
I901471
aI326
asS'2146'
p155
(lp156
I1209243
aI1293
asS'2268'
p157
(lp158
I1328242
aI997
asS'2269'
p159
(lp160
I1329239
aI305
asS'2262'
p161
(lp162
I1321578
aI638
asS'2263'
p163
(lp164
I1322216
aI1913
asS'2260'
p165
(lp166
I1320431
aI269
asS'2261'
p167
(lp168
I1320700
aI878
asS'2266'
p169
(lp170
I1326789
aI795
asS'2267'
p171
(lp172
I1327584
aI658
asS'2264'
p173
(lp174
I1324129
aI1154
asS'2265'
p175
(lp176
I1325283
aI1506
asS'2442'
p177
(lp178
I1472992
aI176
asS'2443'
p179
(lp180
I1473168
aI220
asS'2440'
p181
(lp182
I1472601
aI211
asS'2441'
p183
(lp184
I1472812
aI180
asS'1781'
p185
(lp186
I901797
aI6487
asS'2447'
p187
(lp188
I1474315
aI479
asS'2444'
p189
(lp190
I1473388
aI327
asS'2445'
p191
(lp192
I1473715
aI253
asS'2448'
p193
(lp194
I1474794
aI225
asS'2449'
p195
(lp196
I1475019
aI563
asS'2189'
p197
(lp198
I1254422
aI1690
asS'108'
p199
(lp200
I32716
aI205
asS'109'
p201
(lp202
I32921
aI148
asS'102'
p203
(lp204
I28838
aI186
asS'103'
p205
(lp206
I29024
aI839
asS'100'
p207
(lp208
I28337
aI348
asS'101'
p209
(lp210
I28685
aI153
asS'106'
p211
(lp212
I30905
aI1489
asS'107'
p213
(lp214
I32394
aI322
asS'104'
p215
(lp216
I29863
aI859
asS'105'
p217
(lp218
I30722
aI183
asS'2046'
p219
(lp220
I1124767
aI2304
asS'2047'
p221
(lp222
I1127071
aI845
asS'2044'
p223
(lp224
I1123953
aI398
asS'2045'
p225
(lp226
I1124351
aI416
asS'2042'
p227
(lp228
I1122745
aI821
asS'2043'
p229
(lp230
I1123566
aI387
asS'2040'
p231
(lp232
I1121780
aI645
asS'2041'
p233
(lp234
I1122425
aI320
asS'3198'
p235
(lp236
I2183286
aI577
asS'2048'
p237
(lp238
I1127916
aI975
asS'2049'
p239
(lp240
I1128891
aI564
asS'3150'
p241
(lp242
I2141512
aI1492
asS'3597'
p243
(lp244
I9472861
aI4111
asS'3155'
p245
(lp246
I2147630
aI576
asS'3154'
p247
(lp248
I2146308
aI1322
asS'3238'
p249
(lp250
I2839721
aI19168
asS'1372'
p251
(lp252
I565781
aI210
asS'2737'
p253
(lp254
I1718459
aI991
asS'2038'
p255
(lp256
I1121274
aI239
asS'2836'
p257
(lp258
I1797272
aI707
asS'3159'
p259
(lp260
I2151443
aI421
asS'1001'
p261
(lp262
I339102
aI835
asS'3519'
p263
(lp264
I7847196
aI5869
asS'3158'
p265
(lp266
I2150605
aI838
asS'3513'
p267
(lp268
I7721822
aI14202
asS'3512'
p269
(lp270
I7685751
aI36071
asS'3511'
p271
(lp272
I7650088
aI35663
asS'3446'
p273
(lp274
I6427424
aI10543
asS'1210'
p275
(lp276
I462795
aI433
asS'3239'
p277
(lp278
I2858889
aI22405
asS'3515'
p279
(lp280
I7767679
aI35696
asS'1375'
p281
(lp282
I566539
aI174
asS'2688'
p283
(lp284
I1664451
aI1069
asS'2689'
p285
(lp286
I1665520
aI259
asS'2684'
p287
(lp288
I1660055
aI1800
asS'2685'
p289
(lp290
I1661855
aI595
asS'2686'
p291
(lp292
I1662450
aI751
asS'2687'
p293
(lp294
I1663201
aI1250
asS'2680'
p295
(lp296
I1655595
aI943
asS'1655'
p297
(lp298
I790652
aI535
asS'2682'
p299
(lp300
I1657439
aI1427
asS'2683'
p301
(lp302
I1658866
aI1189
asS'3391'
p303
(lp304
I5468436
aI8100
asS'3999'
p305
(lp306
I16752475
aI23153
asS'3390'
p307
(lp308
I5460492
aI7944
asS'3441'
p309
(lp310
I6318608
aI9772
asS'3998'
p311
(lp312
I16736617
aI15858
asS'1374'
p313
(lp314
I566330
aI209
asS'99'
p315
(lp316
I28162
aI175
asS'98'
p317
(lp318
I27898
aI264
asS'3019'
p319
(lp320
I1995133
aI172
asS'91'
p321
(lp322
I24701
aI219
asS'90'
p323
(lp324
I24489
aI212
asS'93'
p325
(lp326
I25593
aI341
asS'92'
p327
(lp328
I24920
aI673
asS'95'
p329
(lp330
I26245
aI809
asS'94'
p331
(lp332
I25934
aI311
asS'97'
p333
(lp334
I27666
aI232
asS'96'
p335
(lp336
I27054
aI612
asS'1623'
p337
(lp338
I762775
aI1031
asS'1622'
p339
(lp340
I762206
aI569
asS'1621'
p341
(lp342
I761550
aI656
asS'1620'
p343
(lp344
I760695
aI855
asS'1627'
p345
(lp346
I767465
aI722
asS'1626'
p347
(lp348
I765133
aI2332
asS'1625'
p349
(lp350
I764141
aI992
asS'1624'
p351
(lp352
I763806
aI335
asS'1999'
p353
(lp354
I1090060
aI609
asS'1998'
p355
(lp356
I1089369
aI691
asS'1629'
p357
(lp358
I768847
aI520
asS'1377'
p359
(lp360
I566887
aI173
asS'3209'
p361
(lp362
I2267335
aI18071
asS'3208'
p363
(lp364
I2264621
aI2714
asS'3013'
p365
(lp366
I1987890
aI965
asS'2860'
p367
(lp368
I1824559
aI1343
asS'2861'
p369
(lp370
I1825902
aI318
asS'2862'
p371
(lp372
I1826220
aI1260
asS'2863'
p373
(lp374
I1827480
aI1527
asS'559'
p375
(lp376
I176932
aI185
asS'558'
p377
(lp378
I176196
aI736
asS'2866'
p379
(lp380
I1831997
aI1146
asS'2867'
p381
(lp382
I1833143
aI1031
asS'555'
p383
(lp384
I175533
aI156
asS'554'
p385
(lp386
I175374
aI159
asS'557'
p387
(lp388
I175916
aI280
asS'556'
p389
(lp390
I175689
aI227
asS'551'
p391
(lp392
I174860
aI185
asS'550'
p393
(lp394
I174675
aI185
asS'553'
p395
(lp396
I175195
aI179
asS'552'
p397
(lp398
I175045
aI150
asS'2744'
p399
(lp400
I1726735
aI763
asS'3538'
p401
(lp402
I8248264
aI14450
asS'1439'
p403
(lp404
I621855
aI599
asS'1199'
p405
(lp406
I458010
aI790
asS'1198'
p407
(lp408
I456443
aI1567
asS'3348'
p409
(lp410
I4698805
aI820
asS'3349'
p411
(lp412
I4699625
aI6136
asS'1191'
p413
(lp414
I451711
aI302
asS'1190'
p415
(lp416
I451296
aI415
asS'1193'
p417
(lp418
I452186
aI157
asS'1192'
p419
(lp420
I452013
aI173
asS'1195'
p421
(lp422
I453859
aI807
asS'1194'
p423
(lp424
I452343
aI1516
asS'1197'
p425
(lp426
I455392
aI1051
asS'1196'
p427
(lp428
I454666
aI726
asS'1759'
p429
(lp430
I886957
aI224
asS'1758'
p431
(lp432
I886692
aI265
asS'1757'
p433
(lp434
I886249
aI443
asS'1756'
p435
(lp436
I885885
aI364
asS'1755'
p437
(lp438
I885676
aI209
asS'1754'
p439
(lp440
I884399
aI1277
asS'1753'
p441
(lp442
I883267
aI1132
asS'1752'
p443
(lp444
I881975
aI1292
asS'1751'
p445
(lp446
I879520
aI2455
asS'1750'
p447
(lp448
I878336
aI1184
asS'1177'
p449
(lp450
I442818
aI342
asS'1176'
p451
(lp452
I442624
aI194
asS'1175'
p453
(lp454
I441807
aI817
asS'1174'
p455
(lp456
I441636
aI171
asS'1173'
p457
(lp458
I440831
aI805
asS'1172'
p459
(lp460
I439326
aI1505
asS'1171'
p461
(lp462
I438478
aI848
asS'1170'
p463
(lp464
I437052
aI1426
asS'1179'
p465
(lp466
I443347
aI1172
asS'1178'
p467
(lp468
I443160
aI187
asS'511'
p469
(lp470
I163585
aI193
asS'2964'
p471
(lp472
I1937821
aI288
asS'510'
p473
(lp474
I163424
aI161
asS'3440'
p475
(lp476
I6313381
aI5227
asS'513'
p477
(lp478
I163931
aI144
asS'1285'
p479
(lp480
I509459
aI222
asS'1284'
p481
(lp482
I509232
aI227
asS'1287'
p483
(lp484
I509886
aI191
asS'512'
p485
(lp486
I163778
aI153
asS'1281'
p487
(lp488
I507978
aI508
asS'1280'
p489
(lp490
I507165
aI813
asS'1283'
p491
(lp492
I509070
aI162
asS'1282'
p493
(lp494
I508486
aI584
asS'1003'
p495
(lp496
I340772
aI1666
asS'879'
p497
(lp498
I297926
aI240
asS'1289'
p499
(lp500
I510680
aI177
asS'1288'
p501
(lp502
I510077
aI603
asS'514'
p503
(lp504
I164075
aI155
asS'3430'
p505
(lp506
I6145472
aI25576
asS'1579'
p507
(lp508
I730987
aI188
asS'1578'
p509
(lp510
I730781
aI206
asS'689'
p511
(lp512
I226627
aI355
asS'688'
p513
(lp514
I226453
aI174
asS'3431'
p515
(lp516
I6171048
aI2399
asS'685'
p517
(lp518
I226001
aI158
asS'684'
p519
(lp520
I225814
aI187
asS'687'
p521
(lp522
I226302
aI151
asS'686'
p523
(lp524
I226159
aI143
asS'681'
p525
(lp526
I225301
aI186
asS'680'
p527
(lp528
I223082
aI2219
asS'683'
p529
(lp530
I225645
aI169
asS'682'
p531
(lp532
I225487
aI158
asS'458'
p533
(lp534
I144831
aI177
asS'3433'
p535
(lp536
I6178604
aI19105
asS'1226'
p537
(lp538
I473332
aI810
asS'3434'
p539
(lp540
I6197709
aI1072
asS'621'
p541
(lp542
I198015
aI401
asS'873'
p543
(lp544
I296818
aI147
asS'1224'
p545
(lp546
I471717
aI518
asS'3436'
p547
(lp548
I6211938
aI34143
asS'1223'
p549
(lp550
I469293
aI2424
asS'3437'
p551
(lp552
I6246081
aI29801
asS'4152'
p553
(lp554
I19694837
aI30411
asS'1222'
p555
(lp556
I469013
aI280
asS'2741'
p557
(lp558
I1723912
aI1440
asS'1221'
p559
(lp560
I468856
aI157
asS'2740'
p561
(lp562
I1722097
aI1815
asS'1220'
p563
(lp564
I468699
aI157
asS'2743'
p565
(lp566
I1726446
aI289
asS'407'
p567
(lp568
I128687
aI611
asS'406'
p569
(lp570
I128227
aI460
asS'405'
p571
(lp572
I127440
aI787
asS'404'
p573
(lp574
I125779
aI1661
asS'403'
p575
(lp576
I125560
aI219
asS'402'
p577
(lp578
I125273
aI287
asS'401'
p579
(lp580
I125058
aI215
asS'400'
p581
(lp582
I124704
aI354
asS'1379'
p583
(lp584
I567245
aI2078
asS'1378'
p585
(lp586
I567060
aI185
asS'1342'
p587
(lp588
I541707
aI170
asS'409'
p589
(lp590
I129608
aI903
asS'408'
p591
(lp592
I129298
aI310
asS'3834'
p593
(lp594
I13799348
aI12074
asS'3835'
p595
(lp596
I13811422
aI9933
asS'3836'
p597
(lp598
I13821355
aI17332
asS'453'
p599
(lp600
I143866
aI158
asS'3830'
p601
(lp602
I13721403
aI35727
asS'2747'
p603
(lp604
I1729368
aI894
asS'3832'
p605
(lp606
I13777185
aI6480
asS'3833'
p607
(lp608
I13783665
aI15683
asS'454'
p609
(lp610
I144024
aI292
asS'2148'
p611
(lp612
I1211862
aI1049
asS'3838'
p613
(lp614
I13846120
aI22998
asS'3839'
p615
(lp616
I13869118
aI26194
asS'455'
p617
(lp618
I144316
aI164
asS'4031'
p619
(lp620
I17293977
aI31369
asS'2749'
p621
(lp622
I1730719
aI1012
asS'4033'
p623
(lp624
I17330102
aI33539
asS'4032'
p625
(lp626
I17325346
aI4756
asS'4035'
p627
(lp628
I17375165
aI21829
asS'1346'
p629
(lp630
I543114
aI979
asS'4037'
p631
(lp632
I17401154
aI2350
asS'2748'
p633
(lp634
I1730262
aI457
asS'4039'
p635
(lp636
I17409752
aI22947
asS'4038'
p637
(lp638
I17403504
aI6248
asS'1347'
p639
(lp640
I544093
aI1019
asS'3796'
p641
(lp642
I13118787
aI14886
asS'3569'
p643
(lp644
I8894533
aI32877
asS'3206'
p645
(lp646
I2206060
aI35327
asS'379'
p647
(lp648
I117222
aI139
asS'378'
p649
(lp650
I116303
aI919
asS'3620'
p651
(lp652
I9874110
aI10434
asS'371'
p653
(lp654
I115063
aI193
asS'370'
p655
(lp656
I114911
aI152
asS'373'
p657
(lp658
I115419
aI187
asS'372'
p659
(lp660
I115256
aI163
asS'375'
p661
(lp662
I115752
aI146
asS'374'
p663
(lp664
I115606
aI146
asS'377'
p665
(lp666
I116077
aI226
asS'376'
p667
(lp668
I115898
aI179
asS'2295'
p669
(lp670
I1347343
aI355
asS'3093'
p671
(lp672
I2079258
aI1232
asS'3205'
p673
(lp674
I2190938
aI15122
asS'393'
p675
(lp676
I120768
aI236
asS'392'
p677
(lp678
I120602
aI166
asS'391'
p679
(lp680
I120443
aI159
asS'390'
p681
(lp682
I120257
aI186
asS'397'
p683
(lp684
I122192
aI1210
asS'396'
p685
(lp686
I121315
aI877
asS'395'
p687
(lp688
I121162
aI153
asS'394'
p689
(lp690
I121004
aI158
asS'399'
p691
(lp692
I124286
aI418
asS'398'
p693
(lp694
I123402
aI884
asS'3593'
p695
(lp696
I9429850
aI4050
asS'895'
p697
(lp698
I303328
aI295
asS'2309'
p699
(lp700
I1359407
aI485
asS'2308'
p701
(lp702
I1358516
aI891
asS'2301'
p703
(lp704
I1352550
aI1163
asS'2300'
p705
(lp706
I1351553
aI997
asS'2303'
p707
(lp708
I1354920
aI372
asS'2302'
p709
(lp710
I1353713
aI1207
asS'2305'
p711
(lp712
I1355877
aI954
asS'2304'
p713
(lp714
I1355292
aI585
asS'2307'
p715
(lp716
I1357348
aI1168
asS'2306'
p717
(lp718
I1356831
aI517
asS'3592'
p719
(lp720
I9397135
aI32715
asS'2746'
p721
(lp722
I1728081
aI1287
asS'3748'
p723
(lp724
I12217798
aI32642
asS'3749'
p725
(lp726
I12250440
aI24232
asS'3746'
p727
(lp728
I12167129
aI19371
asS'3203'
p729
(lp730
I2188699
aI1184
asS'3744'
p731
(lp732
I12130728
aI27761
asS'3745'
p733
(lp734
I12158489
aI8640
asS'3742'
p735
(lp736
I12060384
aI36605
asS'3743'
p737
(lp738
I12096989
aI33739
asS'3740'
p739
(lp740
I12035188
aI3322
asS'3741'
p741
(lp742
I12038510
aI21874
asS'245'
p743
(lp744
I73127
aI241
asS'244'
p745
(lp746
I72957
aI170
asS'247'
p747
(lp748
I73554
aI172
asS'246'
p749
(lp750
I73368
aI186
asS'241'
p751
(lp752
I70574
aI761
asS'240'
p753
(lp754
I70384
aI190
asS'243'
p755
(lp756
I71754
aI1203
asS'242'
p757
(lp758
I71335
aI419
asS'3591'
p759
(lp760
I9362799
aI34336
asS'249'
p761
(lp762
I74391
aI1437
asS'248'
p763
(lp764
I73726
aI665
asS'2275'
p765
(lp766
I1333547
aI924
asS'2274'
p767
(lp768
I1332290
aI1257
asS'2277'
p769
(lp770
I1335594
aI1487
asS'2276'
p771
(lp772
I1334471
aI1123
asS'2271'
p773
(lp774
I1329997
aI191
asS'2270'
p775
(lp776
I1329544
aI453
asS'2273'
p777
(lp778
I1330777
aI1513
asS'2272'
p779
(lp780
I1330188
aI589
asS'2279'
p781
(lp782
I1337401
aI440
asS'2278'
p783
(lp784
I1337081
aI320
asS'2337'
p785
(lp786
I1383373
aI450
asS'2198'
p787
(lp788
I1263853
aI1856
asS'2459'
p789
(lp790
I1485922
aI237
asS'2458'
p791
(lp792
I1485730
aI192
asS'2455'
p793
(lp794
I1482291
aI1169
asS'2454'
p795
(lp796
I1481369
aI922
asS'2457'
p797
(lp798
I1484644
aI1086
asS'2456'
p799
(lp800
I1483460
aI1184
asS'2451'
p801
(lp802
I1476443
aI1716
asS'2450'
p803
(lp804
I1475582
aI861
asS'2453'
p805
(lp806
I1479716
aI1653
asS'2452'
p807
(lp808
I1478159
aI1557
asS'179'
p809
(lp810
I50682
aI188
asS'178'
p811
(lp812
I50493
aI189
asS'177'
p813
(lp814
I50248
aI245
asS'176'
p815
(lp816
I50064
aI184
asS'175'
p817
(lp818
I49820
aI244
asS'174'
p819
(lp820
I49607
aI213
asS'173'
p821
(lp822
I49460
aI147
asS'172'
p823
(lp824
I49302
aI158
asS'171'
p825
(lp826
I49139
aI163
asS'170'
p827
(lp828
I48957
aI182
asS'2051'
p829
(lp830
I1130516
aI1344
asS'1502'
p831
(lp832
I678688
aI802
asS'2053'
p833
(lp834
I1132678
aI2199
asS'2052'
p835
(lp836
I1131860
aI818
asS'2055'
p837
(lp838
I1136313
aI339
asS'2054'
p839
(lp840
I1134877
aI1436
asS'2057'
p841
(lp842
I1136869
aI456
asS'1503'
p843
(lp844
I679490
aI1014
asS'2059'
p845
(lp846
I1137669
aI1415
asS'2058'
p847
(lp848
I1137325
aI344
asS'3692'
p849
(lp850
I11204421
aI20031
asS'3693'
p851
(lp852
I11224452
aI537
asS'3694'
p853
(lp854
I11224989
aI26801
asS'1500'
p855
(lp856
I678062
aI172
asS'3696'
p857
(lp858
I11277295
aI25373
asS'3697'
p859
(lp860
I11302668
aI18877
asS'1501'
p861
(lp862
I678234
aI454
asS'3596'
p863
(lp864
I9453545
aI19316
asS'1506'
p865
(lp866
I682226
aI944
asS'2968'
p867
(lp868
I1940853
aI1248
asS'1507'
p869
(lp870
I683170
aI691
asS'1367'
p871
(lp872
I564151
aI287
asS'1504'
p873
(lp874
I680504
aI981
asS'1505'
p875
(lp876
I681485
aI741
asS'3526'
p877
(lp878
I8011820
aI25548
asS'2157'
p879
(lp880
I1222398
aI275
asS'3524'
p881
(lp882
I7948192
aI33968
asS'3525'
p883
(lp884
I7982160
aI29660
asS'3522'
p885
(lp886
I7913366
aI16813
asS'3523'
p887
(lp888
I7930179
aI18013
asS'3520'
p889
(lp890
I7853065
aI26608
asS'3521'
p891
(lp892
I7879673
aI33693
asS'3087'
p893
(lp894
I2071605
aI1861
asS'1227'
p895
(lp896
I474142
aI151
asS'3529'
p897
(lp898
I8090839
aI30278
asS'3086'
p899
(lp900
I2070731
aI874
asS'3543'
p901
(lp902
I8337921
aI24884
asS'3594'
p903
(lp904
I9433900
aI566
asS'1977'
p905
(lp906
I1076971
aI876
asS'3083'
p907
(lp908
I2067869
aI1080
asS'2699'
p909
(lp910
I1675042
aI1079
asS'1976'
p911
(lp912
I1074954
aI2017
asS'2697'
p913
(lp914
I1671664
aI1434
asS'2696'
p915
(lp916
I1670788
aI876
asS'2695'
p917
(lp918
I1669581
aI1207
asS'659'
p919
(lp920
I212444
aI205
asS'2693'
p921
(lp922
I1668816
aI500
asS'1975'
p923
(lp924
I1074089
aI865
asS'2691'
p925
(lp926
I1666121
aI575
asS'2690'
p927
(lp928
I1665779
aI342
asS'2405'
p929
(lp930
I1447628
aI278
asS'1974'
p931
(lp932
I1072884
aI1205
asS'3782'
p933
(lp934
I12895843
aI4381
asS'1973'
p935
(lp936
I1071018
aI1866
asS'1972'
p937
(lp938
I1069711
aI1307
asS'1971'
p939
(lp940
I1069355
aI356
asS'1970'
p941
(lp942
I1068974
aI381
asS'3232'
p943
(lp944
I2730792
aI13760
asS'3233'
p945
(lp946
I2744552
aI14889
asS'3230'
p947
(lp948
I2712764
aI1191
asS'3231'
p949
(lp950
I2713955
aI16837
asS'1968'
p951
(lp952
I1067738
aI396
asS'1969'
p953
(lp954
I1068134
aI840
asS'1618'
p955
(lp956
I760007
aI208
asS'1619'
p957
(lp958
I760215
aI480
asS'1616'
p959
(lp960
I759209
aI592
asS'1617'
p961
(lp962
I759801
aI206
asS'1614'
p963
(lp964
I756477
aI2225
asS'1615'
p965
(lp966
I758702
aI507
asS'1612'
p967
(lp968
I753520
aI688
asS'1613'
p969
(lp970
I754208
aI2269
asS'1610'
p971
(lp972
I752416
aI567
asS'1611'
p973
(lp974
I752983
aI537
asS'1985'
p975
(lp976
I1081290
aI245
asS'3650'
p977
(lp978
I10384648
aI23354
asS'4186'
p979
(lp980
I20369012
aI27639
asS'2873'
p981
(lp982
I1839275
aI972
asS'2872'
p983
(lp984
I1839091
aI184
asS'2871'
p985
(lp986
I1837940
aI1151
asS'2870'
p987
(lp988
I1836434
aI1506
asS'2877'
p989
(lp990
I1842920
aI776
asS'2876'
p991
(lp992
I1841425
aI1495
asS'2875'
p993
(lp994
I1841128
aI297
asS'2542'
p995
(lp996
I1548070
aI1346
asS'2879'
p997
(lp998
I1844766
aI689
asS'2878'
p999
(lp1000
I1843696
aI1070
asS'3355'
p1001
(lp1002
I4805403
aI936
asS'3354'
p1003
(lp1004
I4781769
aI23634
asS'3357'
p1005
(lp1006
I4832704
aI23818
asS'3356'
p1007
(lp1008
I4806339
aI26365
asS'3351'
p1009
(lp1010
I4741973
aI22032
asS'3350'
p1011
(lp1012
I4705761
aI36212
asS'3353'
p1013
(lp1014
I4772986
aI8783
asS'3352'
p1015
(lp1016
I4764005
aI8981
asS'3359'
p1017
(lp1018
I4890181
aI13086
asS'3358'
p1019
(lp1020
I4856522
aI33659
asS'3781'
p1021
(lp1022
I12880008
aI15835
asS'3953'
p1023
(lp1024
I15881620
aI19418
asS'2544'
p1025
(lp1026
I1551313
aI829
asS'1768'
p1027
(lp1028
I892653
aI1583
asS'1769'
p1029
(lp1030
I894236
aI1487
asS'1762'
p1031
(lp1032
I887771
aI216
asS'1763'
p1033
(lp1034
I887987
aI341
asS'1760'
p1035
(lp1036
I887181
aI266
asS'1761'
p1037
(lp1038
I887447
aI324
asS'1766'
p1039
(lp1040
I890356
aI791
asS'1767'
p1041
(lp1042
I891147
aI1506
asS'1764'
p1043
(lp1044
I888328
aI1207
asS'1765'
p1045
(lp1046
I889535
aI821
asS'1142'
p1047
(lp1048
I417288
aI247
asS'1143'
p1049
(lp1050
I417535
aI1354
asS'1140'
p1051
(lp1052
I414453
aI1743
asS'1141'
p1053
(lp1054
I416196
aI1092
asS'1146'
p1055
(lp1056
I420728
aI623
asS'1147'
p1057
(lp1058
I421351
aI762
asS'1144'
p1059
(lp1060
I418889
aI542
asS'1145'
p1061
(lp1062
I419431
aI1297
asS'1148'
p1063
(lp1064
I422113
aI456
asS'1149'
p1065
(lp1066
I422569
aI870
asS'2967'
p1067
(lp1068
I1939606
aI1247
asS'2966'
p1069
(lp1070
I1938696
aI910
asS'2402'
p1071
(lp1072
I1445397
aI1626
asS'3787'
p1073
(lp1074
I12987698
aI23988
asS'692'
p1075
(lp1076
I228879
aI156
asS'693'
p1077
(lp1078
I229035
aI514
asS'690'
p1079
(lp1080
I226982
aI265
asS'691'
p1081
(lp1082
I227247
aI1632
asS'696'
p1083
(lp1084
I231404
aI1082
asS'697'
p1085
(lp1086
I232486
aI254
asS'694'
p1087
(lp1088
I229549
aI464
asS'695'
p1089
(lp1090
I230013
aI1391
asS'698'
p1091
(lp1092
I232740
aI611
asS'699'
p1093
(lp1094
I233351
aI460
asS'1548'
p1095
(lp1096
I711443
aI1030
asS'1549'
p1097
(lp1098
I712473
aI2089
asS'542'
p1099
(lp1100
I173316
aI141
asS'543'
p1101
(lp1102
I173457
aI157
asS'540'
p1103
(lp1104
I172976
aI185
asS'541'
p1105
(lp1106
I173161
aI155
asS'546'
p1107
(lp1108
I173955
aI177
asS'547'
p1109
(lp1110
I174132
aI162
asS'544'
p1111
(lp1112
I173614
aI154
asS'545'
p1113
(lp1114
I173768
aI187
asS'3784'
p1115
(lp1116
I12933857
aI34529
asS'548'
p1117
(lp1118
I174294
aI192
asS'549'
p1119
(lp1120
I174486
aI189
asS'1782'
p1121
(lp1122
I908284
aI552
asS'3885'
p1123
(lp1124
I14761773
aI14883
asS'1783'
p1125
(lp1126
I908836
aI803
asS'1784'
p1127
(lp1128
I909639
aI940
asS'1785'
p1129
(lp1130
I910579
aI1804
asS'1786'
p1131
(lp1132
I912383
aI1415
asS'2388'
p1133
(lp1134
I1434495
aI1261
asS'1787'
p1135
(lp1136
I913798
aI3183
asS'3880'
p1137
(lp1138
I14681428
aI2822
asS'3320'
p1139
(lp1140
I4248489
aI17886
asS'3547'
p1141
(lp1142
I8414008
aI30126
asS'414'
p1143
(lp1144
I131935
aI406
asS'415'
p1145
(lp1146
I132341
aI221
asS'416'
p1147
(lp1148
I132562
aI239
asS'417'
p1149
(lp1150
I132801
aI783
asS'410'
p1151
(lp1152
I130511
aI825
asS'411'
p1153
(lp1154
I131336
aI193
asS'412'
p1155
(lp1156
I131529
aI222
asS'413'
p1157
(lp1158
I131751
aI184
asS'1384'
p1159
(lp1160
I574066
aI785
asS'1385'
p1161
(lp1162
I574851
aI1213
asS'1386'
p1163
(lp1164
I576064
aI1202
asS'1387'
p1165
(lp1166
I577266
aI1301
asS'418'
p1167
(lp1168
I133584
aI147
asS'419'
p1169
(lp1170
I133731
aI157
asS'1382'
p1171
(lp1172
I572823
aI647
asS'1383'
p1173
(lp1174
I573470
aI596
asS'3827'
p1175
(lp1176
I13680325
aI9344
asS'3826'
p1177
(lp1178
I13646787
aI33538
asS'3825'
p1179
(lp1180
I13633300
aI13487
asS'3824'
p1181
(lp1182
I13618062
aI15238
asS'3823'
p1183
(lp1184
I13607828
aI10234
asS'3822'
p1185
(lp1186
I13591288
aI16540
asS'3821'
p1187
(lp1188
I13570653
aI20635
asS'3820'
p1189
(lp1190
I13539136
aI31517
asS'3582'
p1191
(lp1192
I9191619
aI13650
asS'3829'
p1193
(lp1194
I13698145
aI23258
asS'3828'
p1195
(lp1196
I13689669
aI8476
asS'3583'
p1197
(lp1198
I9205269
aI27003
asS'2446'
p1199
(lp1200
I1473968
aI347
asS'2438'
p1201
(lp1202
I1469732
aI2053
asS'3585'
p1203
(lp1204
I9242279
aI17950
asS'3042'
p1205
(lp1206
I2019374
aI1108
asS'4129'
p1207
(lp1208
I19196181
aI28048
asS'3587'
p1209
(lp1210
I9276329
aI26859
asS'3588'
p1211
(lp1212
I9303188
aI19633
asS'368'
p1213
(lp1214
I114576
aI174
asS'369'
p1215
(lp1216
I114750
aI161
asS'366'
p1217
(lp1218
I113758
aI160
asS'367'
p1219
(lp1220
I113918
aI658
asS'364'
p1221
(lp1222
I113111
aI472
asS'365'
p1223
(lp1224
I113583
aI175
asS'362'
p1225
(lp1226
I112753
aI178
asS'363'
p1227
(lp1228
I112931
aI180
asS'360'
p1229
(lp1230
I112302
aI258
asS'361'
p1231
(lp1232
I112560
aI193
asS'2760'
p1233
(lp1234
I1738523
aI177
asS'3202'
p1235
(lp1236
I2187549
aI1150
asS'380'
p1237
(lp1238
I117361
aI526
asS'381'
p1239
(lp1240
I117887
aI887
asS'382'
p1241
(lp1242
I118774
aI176
asS'383'
p1243
(lp1244
I118950
aI182
asS'384'
p1245
(lp1246
I119132
aI152
asS'385'
p1247
(lp1248
I119284
aI239
asS'386'
p1249
(lp1250
I119523
aI173
asS'387'
p1251
(lp1252
I119696
aI195
asS'388'
p1253
(lp1254
I119891
aI205
asS'389'
p1255
(lp1256
I120096
aI161
asS'3215'
p1257
(lp1258
I2363851
aI36132
asS'3747'
p1259
(lp1260
I12186500
aI31298
asS'2792'
p1261
(lp1262
I1759821
aI228
asS'3216'
p1263
(lp1264
I2399983
aI29777
asS'3759'
p1265
(lp1266
I12470151
aI7796
asS'3758'
p1267
(lp1268
I12449738
aI20413
asS'3751'
p1269
(lp1270
I12297978
aI28273
asS'3750'
p1271
(lp1272
I12274672
aI23306
asS'3753'
p1273
(lp1274
I12360939
aI29338
asS'3752'
p1275
(lp1276
I12326251
aI34688
asS'3755'
p1277
(lp1278
I12399137
aI22811
asS'3754'
p1279
(lp1280
I12390277
aI8860
asS'3757'
p1281
(lp1282
I12428964
aI20774
asS'3756'
p1283
(lp1284
I12421948
aI7016
asS'2190'
p1285
(lp1286
I1256112
aI196
asS'2191'
p1287
(lp1288
I1256308
aI447
asS'258'
p1289
(lp1290
I79206
aI171
asS'259'
p1291
(lp1292
I79377
aI168
asS'2194'
p1293
(lp1294
I1258169
aI1379
asS'2195'
p1295
(lp1296
I1259548
aI1355
asS'2196'
p1297
(lp1298
I1260903
aI1608
asS'2197'
p1299
(lp1300
I1262511
aI1342
asS'252'
p1301
(lp1302
I76682
aI607
asS'253'
p1303
(lp1304
I77289
aI209
asS'250'
p1305
(lp1306
I75828
aI359
asS'251'
p1307
(lp1308
I76187
aI495
asS'256'
p1309
(lp1310
I78889
aI161
asS'257'
p1311
(lp1312
I79050
aI156
asS'254'
p1313
(lp1314
I77498
aI1240
asS'255'
p1315
(lp1316
I78738
aI151
asS'2200'
p1317
(lp1318
I1265947
aI1001
asS'2201'
p1319
(lp1320
I1266948
aI1125
asS'2202'
p1321
(lp1322
I1268073
aI1535
asS'2203'
p1323
(lp1324
I1269608
aI2490
asS'2204'
p1325
(lp1326
I1272098
aI1222
asS'2205'
p1327
(lp1328
I1273320
aI339
asS'2206'
p1329
(lp1330
I1273659
aI478
asS'2207'
p1331
(lp1332
I1274137
aI791
asS'2208'
p1333
(lp1334
I1274928
aI1319
asS'2209'
p1335
(lp1336
I1276247
aI650
asS'3210'
p1337
(lp1338
I2285406
aI24214
asS'1679'
p1339
(lp1340
I810418
aI1307
asS'2428'
p1341
(lp1342
I1462517
aI298
asS'2429'
p1343
(lp1344
I1462815
aI407
asS'2400'
p1345
(lp1346
I1443450
aI817
asS'2420'
p1347
(lp1348
I1455656
aI1147
asS'2421'
p1349
(lp1350
I1456803
aI1758
asS'2422'
p1351
(lp1352
I1458561
aI205
asS'2423'
p1353
(lp1354
I1458766
aI1285
asS'2424'
p1355
(lp1356
I1460051
aI1682
asS'1849'
p1357
(lp1358
I963168
aI262
asS'2426'
p1359
(lp1360
I1461919
aI291
asS'2427'
p1361
(lp1362
I1462210
aI307
asS'2432'
p1363
(lp1364
I1463826
aI280
asS'1848'
p1365
(lp1366
I962806
aI362
asS'168'
p1367
(lp1368
I48435
aI363
asS'169'
p1369
(lp1370
I48798
aI159
asS'164'
p1371
(lp1372
I47563
aI270
asS'165'
p1373
(lp1374
I47833
aI231
asS'166'
p1375
(lp1376
I48064
aI196
asS'167'
p1377
(lp1378
I48260
aI175
asS'160'
p1379
(lp1380
I46693
aI155
asS'161'
p1381
(lp1382
I46848
aI180
asS'162'
p1383
(lp1384
I47028
aI270
asS'163'
p1385
(lp1386
I47298
aI265
asS'3689'
p1387
(lp1388
I11176706
aI840
asS'3688'
p1389
(lp1390
I11165535
aI11171
asS'3683'
p1391
(lp1392
I11097942
aI18737
asS'3682'
p1393
(lp1394
I11093587
aI4355
asS'3681'
p1395
(lp1396
I11070523
aI23064
asS'3680'
p1397
(lp1398
I11035577
aI34946
asS'3687'
p1399
(lp1400
I11158891
aI6644
asS'3686'
p1401
(lp1402
I11154186
aI4705
asS'3685'
p1403
(lp1404
I11138001
aI16185
asS'3684'
p1405
(lp1406
I11116679
aI21322
asS'3257'
p1407
(lp1408
I3206356
aI12244
asS'3212'
p1409
(lp1410
I2319276
aI6380
asS'2518'
p1411
(lp1412
I1527122
aI1017
asS'2519'
p1413
(lp1414
I1528139
aI930
asS'1842'
p1415
(lp1416
I955421
aI285
asS'2514'
p1417
(lp1418
I1523511
aI677
asS'2515'
p1419
(lp1420
I1524188
aI1021
asS'2516'
p1421
(lp1422
I1525209
aI918
asS'2517'
p1423
(lp1424
I1526127
aI995
asS'2510'
p1425
(lp1426
I1521986
aI205
asS'1841'
p1427
(lp1428
I954914
aI507
asS'2512'
p1429
(lp1430
I1522339
aI251
asS'2513'
p1431
(lp1432
I1522590
aI921
asS'2734'
p1433
(lp1434
I1714970
aI2165
asS'2735'
p1435
(lp1436
I1717135
aI374
asS'2736'
p1437
(lp1438
I1717509
aI950
asS'1840'
p1439
(lp1440
I954594
aI320
asS'2730'
p1441
(lp1442
I1710630
aI856
asS'2731'
p1443
(lp1444
I1711486
aI447
asS'2732'
p1445
(lp1446
I1711933
aI1771
asS'2733'
p1447
(lp1448
I1713704
aI1266
asS'3226'
p1449
(lp1450
I2638006
aI25139
asS'2738'
p1451
(lp1452
I1719450
aI1315
asS'2739'
p1453
(lp1454
I1720765
aI1332
asS'3531'
p1455
(lp1456
I8150799
aI5521
asS'3213'
p1457
(lp1458
I2325656
aI22669
asS'3533'
p1459
(lp1460
I8165128
aI17905
asS'3532'
p1461
(lp1462
I8156320
aI8808
asS'3535'
p1463
(lp1464
I8190740
aI8219
asS'3534'
p1465
(lp1466
I8183033
aI7707
asS'3537'
p1467
(lp1468
I8219617
aI28647
asS'3536'
p1469
(lp1470
I8198959
aI20658
asS'3539'
p1471
(lp1472
I8262714
aI21003
asS'678'
p1473
(lp1474
I220918
aI755
asS'679'
p1475
(lp1476
I221673
aI1409
asS'1814'
p1477
(lp1478
I935062
aI247
asS'1815'
p1479
(lp1480
I935309
aI261
asS'1816'
p1481
(lp1482
I935570
aI383
asS'1817'
p1483
(lp1484
I935953
aI268
asS'1810'
p1485
(lp1486
I931218
aI1461
asS'1811'
p1487
(lp1488
I932679
aI1761
asS'1812'
p1489
(lp1490
I934440
aI240
asS'1813'
p1491
(lp1492
I934680
aI382
asS'1818'
p1493
(lp1494
I936221
aI416
asS'1819'
p1495
(lp1496
I936637
aI319
asS'670'
p1497
(lp1498
I215469
aI1654
asS'2795'
p1499
(lp1500
I1761502
aI1300
asS'671'
p1501
(lp1502
I217123
aI804
asS'2401'
p1503
(lp1504
I1444267
aI1130
asS'1609'
p1505
(lp1506
I751140
aI1276
asS'1608'
p1507
(lp1508
I750027
aI1113
asS'3229'
p1509
(lp1510
I2695012
aI17752
asS'3228'
p1511
(lp1512
I2678469
aI16543
asS'1979'
p1513
(lp1514
I1079302
aI284
asS'1978'
p1515
(lp1516
I1077847
aI1455
asS'1601'
p1517
(lp1518
I742850
aI1770
asS'1600'
p1519
(lp1520
I742538
aI312
asS'1603'
p1521
(lp1522
I746326
aI1009
asS'1602'
p1523
(lp1524
I744620
aI1706
asS'1605'
p1525
(lp1526
I748303
aI1320
asS'1604'
p1527
(lp1528
I747335
aI968
asS'1607'
p1529
(lp1530
I749856
aI171
asS'1606'
p1531
(lp1532
I749623
aI233
asS'809'
p1533
(lp1534
I270680
aI149
asS'808'
p1535
(lp1536
I270521
aI159
asS'803'
p1537
(lp1538
I269691
aI143
asS'802'
p1539
(lp1540
I269547
aI144
asS'801'
p1541
(lp1542
I269373
aI174
asS'800'
p1543
(lp1544
I269093
aI280
asS'807'
p1545
(lp1546
I270366
aI155
asS'806'
p1547
(lp1548
I270145
aI221
asS'805'
p1549
(lp1550
I270000
aI145
asS'804'
p1551
(lp1552
I269834
aI166
asS'2848'
p1553
(lp1554
I1810456
aI689
asS'2849'
p1555
(lp1556
I1811145
aI1504
asS'2846'
p1557
(lp1558
I1808271
aI1259
asS'2847'
p1559
(lp1560
I1809530
aI926
asS'2844'
p1561
(lp1562
I1806678
aI572
asS'2845'
p1563
(lp1564
I1807250
aI1021
asS'2842'
p1565
(lp1566
I1803841
aI2211
asS'2843'
p1567
(lp1568
I1806052
aI626
asS'2840'
p1569
(lp1570
I1801364
aI1417
asS'2841'
p1571
(lp1572
I1802781
aI1060
asS'3039'
p1573
(lp1574
I2015779
aI1194
asS'3321'
p1575
(lp1576
I4266375
aI14267
asS'3322'
p1577
(lp1578
I4280642
aI26504
asS'3323'
p1579
(lp1580
I4307146
aI4177
asS'3324'
p1581
(lp1582
I4311323
aI16038
asS'3325'
p1583
(lp1584
I4327361
aI10305
asS'3326'
p1585
(lp1586
I4337666
aI22729
asS'3327'
p1587
(lp1588
I4360395
aI11101
asS'3328'
p1589
(lp1590
I4371496
aI16045
asS'3329'
p1591
(lp1592
I4387541
aI4929
asS'3589'
p1593
(lp1594
I9322821
aI34889
asS'1775'
p1595
(lp1596
I899922
aI327
asS'1774'
p1597
(lp1598
I899070
aI852
asS'1777'
p1599
(lp1600
I900458
aI328
asS'1776'
p1601
(lp1602
I900249
aI209
asS'1771'
p1603
(lp1604
I896554
aI2112
asS'1770'
p1605
(lp1606
I895723
aI831
asS'1773'
p1607
(lp1608
I898849
aI221
asS'1772'
p1609
(lp1610
I898666
aI183
asS'1779'
p1611
(lp1612
I901050
aI421
asS'1778'
p1613
(lp1614
I900786
aI264
asS'3972'
p1615
(lp1616
I16174272
aI30333
asS'608'
p1617
(lp1618
I191617
aI163
asS'3975'
p1619
(lp1620
I16232901
aI18768
asS'3974'
p1621
(lp1622
I16213492
aI19409
asS'2998'
p1623
(lp1624
I1971057
aI1539
asS'1159'
p1625
(lp1626
I428309
aI966
asS'1158'
p1627
(lp1628
I427892
aI417
asS'2999'
p1629
(lp1630
I1972596
aI895
asS'1155'
p1631
(lp1632
I425718
aI1653
asS'1154'
p1633
(lp1634
I424744
aI974
asS'1157'
p1635
(lp1636
I427538
aI354
asS'1156'
p1637
(lp1638
I427371
aI167
asS'1151'
p1639
(lp1640
I423610
aI220
asS'1150'
p1641
(lp1642
I423439
aI171
asS'1153'
p1643
(lp1644
I424205
aI539
asS'1152'
p1645
(lp1646
I423830
aI375
asS'4182'
p1647
(lp1648
I20264678
aI22007
asS'1555'
p1649
(lp1650
I719196
aI187
asS'2618'
p1651
(lp1652
I1605456
aI960
asS'1554'
p1653
(lp1654
I718426
aI770
asS'1551'
p1655
(lp1656
I715550
aI692
asS'1550'
p1657
(lp1658
I714562
aI988
asS'1553'
p1659
(lp1660
I717698
aI728
asS'1552'
p1661
(lp1662
I716242
aI1456
asS'59'
p1663
(lp1664
I14801
aI275
asS'58'
p1665
(lp1666
I14240
aI561
asS'1557'
p1667
(lp1668
I719559
aI177
asS'1556'
p1669
(lp1670
I719383
aI176
asS'55'
p1671
(lp1672
I13795
aI177
asS'54'
p1673
(lp1674
I13558
aI237
asS'57'
p1675
(lp1676
I14107
aI133
asS'56'
p1677
(lp1678
I13972
aI135
asS'51'
p1679
(lp1680
I12933
aI216
asS'50'
p1681
(lp1682
I12772
aI161
asS'53'
p1683
(lp1684
I13383
aI175
asS'52'
p1685
(lp1686
I13149
aI234
asS'537'
p1687
(lp1688
I172301
aI285
asS'536'
p1689
(lp1690
I171374
aI927
asS'535'
p1691
(lp1692
I171153
aI221
asS'534'
p1693
(lp1694
I170985
aI168
asS'533'
p1695
(lp1696
I169849
aI1136
asS'532'
p1697
(lp1698
I169527
aI322
asS'531'
p1699
(lp1700
I168056
aI1471
asS'530'
p1701
(lp1702
I167874
aI182
asS'2992'
p1703
(lp1704
I1966336
aI249
asS'539'
p1705
(lp1706
I172791
aI185
asS'538'
p1707
(lp1708
I172586
aI205
asS'2993'
p1709
(lp1710
I1966585
aI1174
asS'1558'
p1711
(lp1712
I719736
aI263
asS'2994'
p1713
(lp1714
I1967759
aI649
asS'3541'
p1715
(lp1716
I8299365
aI21972
asS'2995'
p1717
(lp1718
I1968408
aI224
asS'2805'
p1719
(lp1720
I1769540
aI685
asS'3294'
p1721
(lp1722
I3868391
aI15482
asS'2996'
p1723
(lp1724
I1968632
aI1606
asS'3295'
p1725
(lp1726
I3883873
aI30981
asS'2997'
p1727
(lp1728
I1970238
aI819
asS'3296'
p1729
(lp1730
I3914854
aI8433
asS'3297'
p1731
(lp1732
I3923287
aI5467
asS'3290'
p1733
(lp1734
I3776432
aI34137
asS'3291'
p1735
(lp1736
I3810569
aI31122
asS'429'
p1737
(lp1738
I135413
aI524
asS'428'
p1739
(lp1740
I135251
aI162
asS'3292'
p1741
(lp1742
I3841691
aI13059
asS'1399'
p1743
(lp1744
I593132
aI613
asS'1398'
p1745
(lp1746
I592325
aI807
asS'421'
p1747
(lp1748
I134034
aI291
asS'420'
p1749
(lp1750
I133888
aI146
asS'423'
p1751
(lp1752
I134475
aI156
asS'422'
p1753
(lp1754
I134325
aI150
asS'425'
p1755
(lp1756
I134785
aI165
asS'424'
p1757
(lp1758
I134631
aI154
asS'427'
p1759
(lp1760
I135112
aI139
asS'426'
p1761
(lp1762
I134950
aI162
asS'3812'
p1763
(lp1764
I13402847
aI22293
asS'3452'
p1765
(lp1766
I6565692
aI22332
asS'3810'
p1767
(lp1768
I13372468
aI17915
asS'3811'
p1769
(lp1770
I13390383
aI12464
asS'3816'
p1771
(lp1772
I13472104
aI17120
asS'3817'
p1773
(lp1774
I13489224
aI22286
asS'3814'
p1775
(lp1776
I13438549
aI29243
asS'3453'
p1777
(lp1778
I6588024
aI9515
asS'3818'
p1779
(lp1780
I13511510
aI16941
asS'3819'
p1781
(lp1782
I13528451
aI10685
asS'3450'
p1783
(lp1784
I6517708
aI33915
asS'3451'
p1785
(lp1786
I6551623
aI14069
asS'3627'
p1787
(lp1788
I10026390
aI5809
asS'3456'
p1789
(lp1790
I6626731
aI36141
asS'3626'
p1791
(lp1792
I10012260
aI14130
asS'3457'
p1793
(lp1794
I6662872
aI22044
asS'3454'
p1795
(lp1796
I6597539
aI25876
asS'3455'
p1797
(lp1798
I6623415
aI3316
asS'3510'
p1799
(lp1800
I7631971
aI18117
asS'3517'
p1801
(lp1802
I7821453
aI1226
asS'3516'
p1803
(lp1804
I7803375
aI18078
asS'3514'
p1805
(lp1806
I7736024
aI31655
asS'3474'
p1807
(lp1808
I6962283
aI33514
asS'3475'
p1809
(lp1810
I6995797
aI29156
asS'2183'
p1811
(lp1812
I1247850
aI263
asS'2182'
p1813
(lp1814
I1247400
aI450
asS'2181'
p1815
(lp1816
I1245479
aI1921
asS'2180'
p1817
(lp1818
I1245005
aI474
asS'2187'
p1819
(lp1820
I1251317
aI1408
asS'2186'
p1821
(lp1822
I1250076
aI1241
asS'229'
p1823
(lp1824
I67990
aI148
asS'228'
p1825
(lp1826
I67846
aI144
asS'227'
p1827
(lp1828
I67699
aI147
asS'226'
p1829
(lp1830
I67503
aI196
asS'225'
p1831
(lp1832
I67320
aI183
asS'224'
p1833
(lp1834
I65365
aI1955
asS'223'
p1835
(lp1836
I65219
aI146
asS'222'
p1837
(lp1838
I64777
aI442
asS'221'
p1839
(lp1840
I64603
aI174
asS'220'
p1841
(lp1842
I64414
aI189
asS'2213'
p1843
(lp1844
I1279451
aI293
asS'2212'
p1845
(lp1846
I1279247
aI204
asS'2211'
p1847
(lp1848
I1278290
aI957
asS'2210'
p1849
(lp1850
I1276897
aI1393
asS'2217'
p1851
(lp1852
I1283287
aI1971
asS'2216'
p1853
(lp1854
I1281749
aI1538
asS'2215'
p1855
(lp1856
I1280288
aI1461
asS'2214'
p1857
(lp1858
I1279744
aI544
asS'2219'
p1859
(lp1860
I1287210
aI1458
asS'2218'
p1861
(lp1862
I1285258
aI1952
asS'3698'
p1863
(lp1864
I11321545
aI7794
asS'2681'
p1865
(lp1866
I1656538
aI901
asS'2230'
p1867
(lp1868
I1297097
aI987
asS'3549'
p1869
(lp1870
I8476667
aI20953
asS'151'
p1871
(lp1872
I45091
aI151
asS'150'
p1873
(lp1874
I44907
aI184
asS'153'
p1875
(lp1876
I45495
aI172
asS'152'
p1877
(lp1878
I45242
aI253
asS'155'
p1879
(lp1880
I45837
aI205
asS'154'
p1881
(lp1882
I45667
aI170
asS'157'
p1883
(lp1884
I46228
aI159
asS'156'
p1885
(lp1886
I46042
aI186
asS'159'
p1887
(lp1888
I46542
aI151
asS'158'
p1889
(lp1890
I46387
aI155
asS'2431'
p1891
(lp1892
I1463537
aI289
asS'2430'
p1893
(lp1894
I1463222
aI315
asS'2437'
p1895
(lp1896
I1468261
aI1471
asS'2436'
p1897
(lp1898
I1467356
aI905
asS'2435'
p1899
(lp1900
I1466185
aI1171
asS'2434'
p1901
(lp1902
I1465281
aI904
asS'2236'
p1903
(lp1904
I1303748
aI348
asS'3470'
p1905
(lp1906
I6889856
aI25840
asS'2509'
p1907
(lp1908
I1521803
aI183
asS'2508'
p1909
(lp1910
I1521575
aI228
asS'2507'
p1911
(lp1912
I1521104
aI471
asS'2506'
p1913
(lp1914
I1520743
aI361
asS'2505'
p1915
(lp1916
I1520257
aI486
asS'2504'
p1917
(lp1918
I1519911
aI346
asS'2503'
p1919
(lp1920
I1519747
aI164
asS'2502'
p1921
(lp1922
I1519462
aI285
asS'2501'
p1923
(lp1924
I1517965
aI1497
asS'2500'
p1925
(lp1926
I1516641
aI1324
asS'2727'
p1927
(lp1928
I1708802
aI657
asS'2726'
p1929
(lp1930
I1706796
aI2006
asS'2725'
p1931
(lp1932
I1706593
aI203
asS'2724'
p1933
(lp1934
I1706430
aI163
asS'2723'
p1935
(lp1936
I1703582
aI2848
asS'2722'
p1937
(lp1938
I1701904
aI1678
asS'2721'
p1939
(lp1940
I1700317
aI1587
asS'2720'
p1941
(lp1942
I1699251
aI1066
asS'2729'
p1943
(lp1944
I1710284
aI346
asS'2728'
p1945
(lp1946
I1709459
aI825
asS'3942'
p1947
(lp1948
I15706800
aI3987
asS'2199'
p1949
(lp1950
I1265709
aI238
asS'1807'
p1951
(lp1952
I928234
aI1520
asS'1806'
p1953
(lp1954
I927209
aI1025
asS'1805'
p1955
(lp1956
I925412
aI1797
asS'1804'
p1957
(lp1958
I925054
aI358
asS'1803'
p1959
(lp1960
I924707
aI347
asS'1802'
p1961
(lp1962
I924309
aI398
asS'1801'
p1963
(lp1964
I923899
aI410
asS'1800'
p1965
(lp1966
I923560
aI339
asS'3788'
p1967
(lp1968
I13011686
aI3217
asS'3789'
p1969
(lp1970
I13014903
aI28892
asS'1809'
p1971
(lp1972
I930419
aI799
asS'1808'
p1973
(lp1974
I929754
aI665
asS'3089'
p1975
(lp1976
I2074391
aI779
asS'3473'
p1977
(lp1978
I6945431
aI16852
asS'3765'
p1979
(lp1980
I12578848
aI33658
asS'3088'
p1981
(lp1982
I2073466
aI925
asS'3710'
p1983
(lp1984
I11533578
aI21803
asS'3258'
p1985
(lp1986
I3218600
aI6945
asS'1524'
p1987
(lp1988
I692575
aI861
asS'1948'
p1989
(lp1990
I1053275
aI1089
asS'1544'
p1991
(lp1992
I709934
aI910
asS'1525'
p1993
(lp1994
I693436
aI1448
asS'1942'
p1995
(lp1996
I1045892
aI317
asS'1943'
p1997
(lp1998
I1046209
aI302
asS'1940'
p1999
(lp2000
I1045341
aI318
asS'1941'
p2001
(lp2002
I1045659
aI233
asS'1946'
p2003
(lp2004
I1050018
aI1945
asS'1526'
p2005
(lp2006
I694884
aI845
asS'1944'
p2007
(lp2008
I1046511
aI466
asS'1945'
p2009
(lp2010
I1046977
aI3041
asS'818'
p2011
(lp2012
I272082
aI179
asS'819'
p2013
(lp2014
I272261
aI212
asS'1527'
p2015
(lp2016
I695729
aI1432
asS'810'
p2017
(lp2018
I270829
aI148
asS'811'
p2019
(lp2020
I270977
aI151
asS'812'
p2021
(lp2022
I271128
aI152
asS'813'
p2023
(lp2024
I271280
aI167
asS'814'
p2025
(lp2026
I271447
aI158
asS'815'
p2027
(lp2028
I271605
aI169
asS'816'
p2029
(lp2030
I271774
aI169
asS'817'
p2031
(lp2032
I271943
aI139
asS'2859'
p2033
(lp2034
I1823259
aI1300
asS'1545'
p2035
(lp2036
I710844
aI190
asS'3495'
p2037
(lp2038
I7342457
aI12508
asS'1522'
p2039
(lp2040
I691277
aI173
asS'1990'
p2041
(lp2042
I1084982
aI218
asS'2851'
p2043
(lp2044
I1813901
aI2004
asS'2850'
p2045
(lp2046
I1812649
aI1252
asS'2853'
p2047
(lp2048
I1817208
aI320
asS'1523'
p2049
(lp2050
I691450
aI1125
asS'2855'
p2051
(lp2052
I1817722
aI1690
asS'1993'
p2053
(lp2054
I1086425
aI342
asS'2857'
p2055
(lp2056
I1821182
aI1070
asS'2856'
p2057
(lp2058
I1819412
aI1770
asS'1490'
p2059
(lp2060
I666496
aI199
asS'1397'
p2061
(lp2062
I590959
aI1366
asS'1492'
p2063
(lp2064
I671511
aI162
asS'1493'
p2065
(lp2066
I671673
aI193
asS'1494'
p2067
(lp2068
I671866
aI234
asS'1495'
p2069
(lp2070
I672100
aI507
asS'1496'
p2071
(lp2072
I672607
aI2773
asS'1396'
p2073
(lp2074
I588614
aI2345
asS'1498'
p2075
(lp2076
I676936
aI940
asS'1499'
p2077
(lp2078
I677876
aI186
asS'3339'
p2079
(lp2080
I4544579
aI2477
asS'3338'
p2081
(lp2082
I4527596
aI16983
asS'1395'
p2083
(lp2084
I587570
aI1044
asS'4189'
p2085
(lp2086
I20408058
aI17707
asS'1994'
p2087
(lp2088
I1086767
aI318
asS'1700'
p2089
(lp2090
I832715
aI1328
asS'1701'
p2091
(lp2092
I834043
aI189
asS'1702'
p2093
(lp2094
I834232
aI166
asS'1394'
p2095
(lp2096
I586286
aI1284
asS'1704'
p2097
(lp2098
I835628
aI258
asS'1705'
p2099
(lp2100
I835886
aI1838
asS'1706'
p2101
(lp2102
I837724
aI1474
asS'1707'
p2103
(lp2104
I839198
aI693
asS'1708'
p2105
(lp2106
I839891
aI869
asS'1393'
p2107
(lp2108
I584414
aI1872
asS'1996'
p2109
(lp2110
I1087360
aI295
asS'1392'
p2111
(lp2112
I583103
aI1311
asS'1391'
p2113
(lp2114
I582425
aI678
asS'3217'
p2115
(lp2116
I2429760
aI7757
asS'1390'
p2117
(lp2118
I581053
aI1372
asS'4188'
p2119
(lp2120
I20399485
aI8573
asS'3659'
p2121
(lp2122
I10566366
aI5312
asS'1128'
p2123
(lp2124
I405087
aI206
asS'1129'
p2125
(lp2126
I405293
aI174
asS'1628'
p2127
(lp2128
I768187
aI660
asS'3813'
p2129
(lp2130
I13425140
aI13409
asS'1120'
p2131
(lp2132
I402823
aI200
asS'1121'
p2133
(lp2134
I403023
aI518
asS'1122'
p2135
(lp2136
I403541
aI717
asS'1123'
p2137
(lp2138
I404258
aI153
asS'1124'
p2139
(lp2140
I404411
aI155
asS'1125'
p2141
(lp2142
I404566
aI146
asS'1126'
p2143
(lp2144
I404712
aI218
asS'1127'
p2145
(lp2146
I404930
aI157
asS'2989'
p2147
(lp2148
I1961821
aI1419
asS'2988'
p2149
(lp2150
I1960717
aI1104
asS'3029'
p2151
(lp2152
I2005512
aI182
asS'3028'
p2153
(lp2154
I2004533
aI979
asS'2983'
p2155
(lp2156
I1955124
aI383
asS'2982'
p2157
(lp2158
I1954486
aI638
asS'2981'
p2159
(lp2160
I1953331
aI1155
asS'2980'
p2161
(lp2162
I1952406
aI925
asS'2987'
p2163
(lp2164
I1959212
aI1505
asS'2986'
p2165
(lp2166
I1957506
aI1706
asS'2985'
p2167
(lp2168
I1956138
aI1368
asS'2984'
p2169
(lp2170
I1955507
aI631
asS'524'
p2171
(lp2172
I166015
aI290
asS'525'
p2173
(lp2174
I166305
aI176
asS'526'
p2175
(lp2176
I166481
aI153
asS'527'
p2177
(lp2178
I166634
aI871
asS'520'
p2179
(lp2180
I165107
aI153
asS'521'
p2181
(lp2182
I165260
aI433
asS'522'
p2183
(lp2184
I165693
aI178
asS'523'
p2185
(lp2186
I165871
aI144
asS'1014'
p2187
(lp2188
I348554
aI702
asS'1015'
p2189
(lp2190
I349256
aI653
asS'1016'
p2191
(lp2192
I349909
aI327
asS'1017'
p2193
(lp2194
I350236
aI211
asS'528'
p2195
(lp2196
I167505
aI189
asS'529'
p2197
(lp2198
I167694
aI180
asS'1012'
p2199
(lp2200
I346162
aI1681
asS'1013'
p2201
(lp2202
I347843
aI711
asS'1234'
p2203
(lp2204
I476371
aI1930
asS'1235'
p2205
(lp2206
I478301
aI1104
asS'1236'
p2207
(lp2208
I479405
aI1068
asS'1237'
p2209
(lp2210
I480473
aI1224
asS'1230'
p2211
(lp2212
I474799
aI382
asS'1231'
p2213
(lp2214
I475181
aI454
asS'1232'
p2215
(lp2216
I475635
aI188
asS'1233'
p2217
(lp2218
I475823
aI548
asS'4196'
p2219
(lp2220
I20521166
aI34991
asS'3957'
p2221
(lp2222
I15956798
aI22944
asS'4194'
p2223
(lp2224
I20479642
aI28271
asS'4195'
p2225
(lp2226
I20507913
aI13253
asS'1238'
p2227
(lp2228
I481697
aI848
asS'1239'
p2229
(lp2230
I482545
aI153
asS'4190'
p2231
(lp2232
I20425765
aI11754
asS'3956'
p2233
(lp2234
I15933159
aI23639
asS'2526'
p2235
(lp2236
I1534356
aI1370
asS'3955'
p2237
(lp2238
I15925423
aI7736
asS'3954'
p2239
(lp2240
I15901038
aI24385
asS'3167'
p2241
(lp2242
I2159239
aI737
asS'438'
p2243
(lp2244
I139024
aI628
asS'439'
p2245
(lp2246
I139652
aI212
asS'436'
p2247
(lp2248
I138096
aI253
asS'437'
p2249
(lp2250
I138349
aI675
asS'434'
p2251
(lp2252
I136598
aI168
asS'435'
p2253
(lp2254
I136766
aI1330
asS'432'
p2255
(lp2256
I136240
aI173
asS'433'
p2257
(lp2258
I136413
aI185
asS'430'
p2259
(lp2260
I135937
aI151
asS'431'
p2261
(lp2262
I136088
aI152
asS'3809'
p2263
(lp2264
I13366167
aI6301
asS'3808'
p2265
(lp2266
I13336679
aI29488
asS'3805'
p2267
(lp2268
I13303399
aI22442
asS'3804'
p2269
(lp2270
I13277989
aI25410
asS'3807'
p2271
(lp2272
I13329611
aI7068
asS'3806'
p2273
(lp2274
I13325841
aI3770
asS'3801'
p2275
(lp2276
I13199029
aI34931
asS'3800'
p2277
(lp2278
I13192682
aI6347
asS'3803'
p2279
(lp2280
I13251816
aI26173
asS'3802'
p2281
(lp2282
I13233960
aI17856
asS'2864'
p2283
(lp2284
I1829007
aI1437
asS'2481'
p2285
(lp2286
I1497981
aI852
asS'2865'
p2287
(lp2288
I1830444
aI1553
asS'1967'
p2289
(lp2290
I1067398
aI340
asS'2868'
p2291
(lp2292
I1834174
aI1419
asS'3162'
p2293
(lp2294
I2153618
aI530
asS'2869'
p2295
(lp2296
I1835593
aI841
asS'3082'
p2297
(lp2298
I2066937
aI932
asS'1960'
p2299
(lp2300
I1062418
aI1399
asS'3314'
p2301
(lp2302
I4189603
aI3292
asS'3163'
p2303
(lp2304
I2154148
aI1632
asS'4076'
p2305
(lp2306
I18122822
aI8176
asS'4174'
p2307
(lp2308
I20120362
aI24173
asS'4175'
p2309
(lp2310
I20144535
aI22534
asS'4176'
p2311
(lp2312
I20167069
aI19933
asS'3225'
p2313
(lp2314
I2602062
aI35944
asS'4170'
p2315
(lp2316
I20051775
aI8576
asS'4171'
p2317
(lp2318
I20060351
aI16115
asS'4172'
p2319
(lp2320
I20076466
aI17610
asS'4173'
p2321
(lp2322
I20094076
aI26286
asS'1961'
p2323
(lp2324
I1063817
aI1089
asS'4178'
p2325
(lp2326
I20200877
aI17932
asS'4179'
p2327
(lp2328
I20218809
aI12378
asS'3160'
p2329
(lp2330
I2151864
aI1501
asS'3060'
p2331
(lp2332
I2040009
aI774
asS'2464'
p2333
(lp2334
I1486868
aI287
asS'3065'
p2335
(lp2336
I2043098
aI1055
asS'2465'
p2337
(lp2338
I1487155
aI330
asS'4183'
p2339
(lp2340
I20286685
aI22520
asS'3064'
p2341
(lp2342
I2041750
aI1348
asS'2466'
p2343
(lp2344
I1487485
aI445
asS'3161'
p2345
(lp2346
I2153365
aI253
asS'2467'
p2347
(lp2348
I1487930
aI321
asS'238'
p2349
(lp2350
I69857
aI302
asS'239'
p2351
(lp2352
I70159
aI225
asS'4070'
p2353
(lp2354
I17993678
aI22306
asS'234'
p2355
(lp2356
I68919
aI168
asS'235'
p2357
(lp2358
I69087
aI139
asS'236'
p2359
(lp2360
I69226
aI468
asS'237'
p2361
(lp2362
I69694
aI163
asS'230'
p2363
(lp2364
I68138
aI186
asS'231'
p2365
(lp2366
I68324
aI186
asS'232'
p2367
(lp2368
I68510
aI235
asS'233'
p2369
(lp2370
I68745
aI174
asS'3068'
p2371
(lp2372
I2046935
aI1082
asS'2462'
p2373
(lp2374
I1486495
aI186
asS'2228'
p2375
(lp2376
I1294586
aI1282
asS'2229'
p2377
(lp2378
I1295868
aI1229
asS'2226'
p2379
(lp2380
I1292752
aI648
asS'2227'
p2381
(lp2382
I1293400
aI1186
asS'2224'
p2383
(lp2384
I1292138
aI340
asS'2225'
p2385
(lp2386
I1292478
aI274
asS'2222'
p2387
(lp2388
I1291214
aI642
asS'2223'
p2389
(lp2390
I1291856
aI282
asS'2220'
p2391
(lp2392
I1288668
aI1931
asS'2221'
p2393
(lp2394
I1290599
aI615
asS'1'
p2395
(lp2396
I0
aI402
asS'146'
p2397
(lp2398
I43718
aI609
asS'147'
p2399
(lp2400
I44327
aI169
asS'144'
p2401
(lp2402
I42552
aI934
asS'145'
p2403
(lp2404
I43486
aI232
asS'142'
p2405
(lp2406
I41996
aI352
asS'143'
p2407
(lp2408
I42348
aI204
asS'140'
p2409
(lp2410
I41209
aI625
asS'141'
p2411
(lp2412
I41834
aI162
asS'2468'
p2413
(lp2414
I1488251
aI249
asS'148'
p2415
(lp2416
I44496
aI162
asS'149'
p2417
(lp2418
I44658
aI249
asS'3401'
p2419
(lp2420
I5619496
aI8878
asS'2088'
p2421
(lp2422
I1160584
aI273
asS'2089'
p2423
(lp2424
I1160857
aI210
asS'3400'
p2425
(lp2426
I5593506
aI25990
asS'2082'
p2427
(lp2428
I1155972
aI1581
asS'2083'
p2429
(lp2430
I1157553
aI1481
asS'2080'
p2431
(lp2432
I1153299
aI1427
asS'2081'
p2433
(lp2434
I1154726
aI1246
asS'2086'
p2435
(lp2436
I1159980
aI248
asS'2087'
p2437
(lp2438
I1160228
aI356
asS'2084'
p2439
(lp2440
I1159034
aI382
asS'2085'
p2441
(lp2442
I1159416
aI564
asS'3342'
p2443
(lp2444
I4579873
aI26665
asS'2538'
p2445
(lp2446
I1544649
aI1344
asS'2539'
p2447
(lp2448
I1545993
aI322
asS'3343'
p2449
(lp2450
I4606538
aI11783
asS'2532'
p2451
(lp2452
I1538061
aI350
asS'2533'
p2453
(lp2454
I1538411
aI338
asS'2530'
p2455
(lp2456
I1537286
aI517
asS'2531'
p2457
(lp2458
I1537803
aI258
asS'2536'
p2459
(lp2460
I1542355
aI1023
asS'2537'
p2461
(lp2462
I1543378
aI1271
asS'2534'
p2463
(lp2464
I1538749
aI2297
asS'2535'
p2465
(lp2466
I1541046
aI1309
asS'2712'
p2467
(lp2468
I1690296
aI956
asS'2713'
p2469
(lp2470
I1691252
aI204
asS'2710'
p2471
(lp2472
I1687828
aI1444
asS'2711'
p2473
(lp2474
I1689272
aI1024
asS'2716'
p2475
(lp2476
I1693797
aI1541
asS'2717'
p2477
(lp2478
I1695338
aI1169
asS'2714'
p2479
(lp2480
I1691456
aI1111
asS'2715'
p2481
(lp2482
I1692567
aI1230
asS'3346'
p2483
(lp2484
I4666301
aI28559
asS'2718'
p2485
(lp2486
I1696507
aI1170
asS'2719'
p2487
(lp2488
I1697677
aI1574
asS'3347'
p2489
(lp2490
I4694860
aI3945
asS'3409'
p2491
(lp2492
I5718293
aI18565
asS'3344'
p2493
(lp2494
I4618321
aI32615
asS'3408'
p2495
(lp2496
I5715974
aI2319
asS'3345'
p2497
(lp2498
I4650936
aI15365
asS'1832'
p2499
(lp2500
I948918
aI284
asS'1833'
p2501
(lp2502
I949202
aI258
asS'1830'
p2503
(lp2504
I948275
aI274
asS'1831'
p2505
(lp2506
I948549
aI369
asS'1836'
p2507
(lp2508
I951807
aI1672
asS'1837'
p2509
(lp2510
I953479
aI536
asS'1834'
p2511
(lp2512
I949460
aI1623
asS'1835'
p2513
(lp2514
I951083
aI724
asS'3795'
p2515
(lp2516
I13110373
aI8414
asS'3090'
p2517
(lp2518
I2075170
aI1137
asS'1838'
p2519
(lp2520
I954015
aI268
asS'1839'
p2521
(lp2522
I954283
aI311
asS'3791'
p2523
(lp2524
I13052414
aI17253
asS'3790'
p2525
(lp2526
I13043795
aI8619
asS'3075'
p2527
(lp2528
I2056378
aI958
asS'3792'
p2529
(lp2530
I13069667
aI5544
asS'2154'
p2531
(lp2532
I1218640
aI1499
asS'2155'
p2533
(lp2534
I1220139
aI1600
asS'939'
p2535
(lp2536
I313331
aI153
asS'938'
p2537
(lp2538
I313193
aI138
asS'2150'
p2539
(lp2540
I1213390
aI1609
asS'2151'
p2541
(lp2542
I1214999
aI1152
asS'2152'
p2543
(lp2544
I1216151
aI1433
asS'2153'
p2545
(lp2546
I1217584
aI1056
asS'933'
p2547
(lp2548
I312391
aI153
asS'932'
p2549
(lp2550
I312182
aI209
asS'931'
p2551
(lp2552
I311832
aI350
asS'930'
p2553
(lp2554
I311661
aI171
asS'937'
p2555
(lp2556
I313011
aI182
asS'936'
p2557
(lp2558
I312856
aI155
asS'935'
p2559
(lp2560
I312692
aI164
asS'934'
p2561
(lp2562
I312544
aI148
asS'3091'
p2563
(lp2564
I2076307
aI1569
asS'1955'
p2565
(lp2566
I1057445
aI521
asS'1954'
p2567
(lp2568
I1057160
aI285
asS'1957'
p2569
(lp2570
I1059280
aI1122
asS'1956'
p2571
(lp2572
I1057966
aI1314
asS'1951'
p2573
(lp2574
I1055449
aI1340
asS'1950'
p2575
(lp2576
I1055205
aI244
asS'1953'
p2577
(lp2578
I1056941
aI219
asS'1952'
p2579
(lp2580
I1056789
aI152
asS'1959'
p2581
(lp2582
I1061181
aI1237
asS'1958'
p2583
(lp2584
I1060402
aI779
asS'3249'
p2585
(lp2586
I3040935
aI17189
asS'3248'
p2587
(lp2588
I3017625
aI23310
asS'3096'
p2589
(lp2590
I2083087
aI1362
asS'3243'
p2591
(lp2592
I2927854
aI14580
asS'3242'
p2593
(lp2594
I2916098
aI11756
asS'3241'
p2595
(lp2596
I2900497
aI15601
asS'3240'
p2597
(lp2598
I2881294
aI19203
asS'3247'
p2599
(lp2600
I3003569
aI14056
asS'3246'
p2601
(lp2602
I2998395
aI5174
asS'3245'
p2603
(lp2604
I2964813
aI33582
asS'3244'
p2605
(lp2606
I2942434
aI22379
asS'829'
p2607
(lp2608
I276045
aI213
asS'828'
p2609
(lp2610
I275738
aI307
asS'825'
p2611
(lp2612
I274631
aI632
asS'824'
p2613
(lp2614
I273751
aI880
asS'827'
p2615
(lp2616
I275512
aI226
asS'826'
p2617
(lp2618
I275263
aI249
asS'821'
p2619
(lp2620
I272623
aI164
asS'820'
p2621
(lp2622
I272473
aI150
asS'823'
p2623
(lp2624
I273163
aI588
asS'822'
p2625
(lp2626
I272787
aI376
asS'3097'
p2627
(lp2628
I2084449
aI1400
asS'1536'
p2629
(lp2630
I703622
aI854
asS'2409'
p2631
(lp2632
I1450829
aI561
asS'3227'
p2633
(lp2634
I2663145
aI15324
asS'1483'
p2635
(lp2636
I658266
aI526
asS'1482'
p2637
(lp2638
I657658
aI608
asS'1481'
p2639
(lp2640
I657496
aI162
asS'1480'
p2641
(lp2642
I657277
aI219
asS'1487'
p2643
(lp2644
I662370
aI1856
asS'1486'
p2645
(lp2646
I661213
aI1157
asS'1485'
p2647
(lp2648
I660061
aI1152
asS'1484'
p2649
(lp2650
I658792
aI1269
asS'3306'
p2651
(lp2652
I4056161
aI8701
asS'3307'
p2653
(lp2654
I4064862
aI26442
asS'1489'
p2655
(lp2656
I665523
aI973
asS'1488'
p2657
(lp2658
I664226
aI1297
asS'3302'
p2659
(lp2660
I3997795
aI13004
asS'3303'
p2661
(lp2662
I4010799
aI22843
asS'3300'
p2663
(lp2664
I3965305
aI4919
asS'3301'
p2665
(lp2666
I3970224
aI27571
asS'797'
p2667
(lp2668
I266356
aI226
asS'796'
p2669
(lp2670
I264934
aI1422
asS'795'
p2671
(lp2672
I264490
aI444
asS'794'
p2673
(lp2674
I263906
aI584
asS'793'
p2675
(lp2676
I263616
aI290
asS'792'
p2677
(lp2678
I263391
aI225
asS'791'
p2679
(lp2680
I263161
aI230
asS'790'
p2681
(lp2682
I263019
aI142
asS'3050'
p2683
(lp2684
I2028968
aI977
asS'1719'
p2685
(lp2686
I847868
aI1172
asS'1718'
p2687
(lp2688
I847287
aI581
asS'2413'
p2689
(lp2690
I1453101
aI553
asS'799'
p2691
(lp2692
I266837
aI2256
asS'798'
p2693
(lp2694
I266582
aI255
asS'1270'
p2695
(lp2696
I500690
aI1180
asS'2412'
p2697
(lp2698
I1452607
aI494
asS'1271'
p2699
(lp2700
I501870
aI633
asS'2415'
p2701
(lp2702
I1453861
aI425
asS'1272'
p2703
(lp2704
I502503
aI1213
asS'2414'
p2705
(lp2706
I1453654
aI207
asS'4062'
p2707
(lp2708
I17823727
aI9708
asS'1139'
p2709
(lp2710
I412558
aI1895
asS'1138'
p2711
(lp2712
I412043
aI515
asS'2417'
p2713
(lp2714
I1454651
aI482
asS'3051'
p2715
(lp2716
I2029945
aI394
asS'1133'
p2717
(lp2718
I407928
aI191
asS'1132'
p2719
(lp2720
I406551
aI1377
asS'1131'
p2721
(lp2722
I405690
aI861
asS'1130'
p2723
(lp2724
I405467
aI223
asS'1137'
p2725
(lp2726
I411811
aI232
asS'1136'
p2727
(lp2728
I411479
aI332
asS'1135'
p2729
(lp2730
I409425
aI2054
asS'1134'
p2731
(lp2732
I408119
aI1306
asS'2419'
p2733
(lp2734
I1455386
aI270
asS'4061'
p2735
(lp2736
I17822437
aI1290
asS'1276'
p2737
(lp2738
I505075
aI151
asS'2418'
p2739
(lp2740
I1455133
aI253
asS'4066'
p2741
(lp2742
I17880085
aI30119
asS'1277'
p2743
(lp2744
I505226
aI177
asS'2790'
p2745
(lp2746
I1759439
aI183
asS'3018'
p2747
(lp2748
I1993818
aI1315
asS'2791'
p2749
(lp2750
I1759622
aI199
asS'3012'
p2751
(lp2752
I1987101
aI789
asS'2796'
p2753
(lp2754
I1762802
aI247
asS'3010'
p2755
(lp2756
I1984908
aI730
asS'2793'
p2757
(lp2758
I1760049
aI202
asS'3016'
p2759
(lp2760
I1992223
aI867
asS'3017'
p2761
(lp2762
I1993090
aI728
asS'3014'
p2763
(lp2764
I1988855
aI1643
asS'2797'
p2765
(lp2766
I1763049
aI208
asS'519'
p2767
(lp2768
I164942
aI165
asS'518'
p2769
(lp2770
I164746
aI196
asS'2149'
p2771
(lp2772
I1212911
aI479
asS'1009'
p2773
(lp2774
I344867
aI375
asS'1008'
p2775
(lp2776
I344264
aI603
asS'1007'
p2777
(lp2778
I343164
aI1100
asS'1006'
p2779
(lp2780
I342770
aI394
asS'1005'
p2781
(lp2782
I342595
aI175
asS'1004'
p2783
(lp2784
I342438
aI157
asS'515'
p2785
(lp2786
I164230
aI187
asS'1002'
p2787
(lp2788
I339937
aI835
asS'517'
p2789
(lp2790
I164571
aI175
asS'1000'
p2791
(lp2792
I338947
aI155
asS'623'
p2793
(lp2794
I198584
aI159
asS'622'
p2795
(lp2796
I198416
aI168
asS'1225'
p2797
(lp2798
I472235
aI1097
asS'620'
p2799
(lp2800
I197870
aI145
asS'627'
p2801
(lp2802
I199327
aI1248
asS'626'
p2803
(lp2804
I199078
aI249
asS'625'
p2805
(lp2806
I198902
aI176
asS'624'
p2807
(lp2808
I198743
aI159
asS'4181'
p2809
(lp2810
I20248492
aI16186
asS'4180'
p2811
(lp2812
I20231187
aI17305
asS'629'
p2813
(lp2814
I200770
aI169
asS'628'
p2815
(lp2816
I200575
aI195
asS'4185'
p2817
(lp2818
I20334802
aI34210
asS'4184'
p2819
(lp2820
I20309205
aI25597
asS'1229'
p2821
(lp2822
I474636
aI163
asS'1228'
p2823
(lp2824
I474293
aI343
asS'3279'
p2825
(lp2826
I3555474
aI25337
asS'1535'
p2827
(lp2828
I702163
aI1459
asS'2882'
p2829
(lp2830
I1846906
aI1491
asS'2883'
p2831
(lp2832
I1848397
aI1425
asS'2880'
p2833
(lp2834
I1845455
aI590
asS'2881'
p2835
(lp2836
I1846045
aI861
asS'2886'
p2837
(lp2838
I1851922
aI1391
asS'2887'
p2839
(lp2840
I1853313
aI1768
asS'2884'
p2841
(lp2842
I1849822
aI1234
asS'2885'
p2843
(lp2844
I1851056
aI866
asS'2888'
p2845
(lp2846
I1855081
aI1164
asS'2889'
p2847
(lp2848
I1856245
aI1912
asS'3662'
p2849
(lp2850
I10618033
aI34730
asS'2'
p2851
(lp2852
I402
aI172
asS'3878'
p2853
(lp2854
I14635880
aI9731
asS'3879'
p2855
(lp2856
I14645611
aI35817
asS'3196'
p2857
(lp2858
I2182195
aI587
asS'3870'
p2859
(lp2860
I14468159
aI25861
asS'3871'
p2861
(lp2862
I14494020
aI20477
asS'3872'
p2863
(lp2864
I14514497
aI4020
asS'3873'
p2865
(lp2866
I14518517
aI27243
asS'3874'
p2867
(lp2868
I14545760
aI27172
asS'3875'
p2869
(lp2870
I14572932
aI22375
asS'3876'
p2871
(lp2872
I14595307
aI20333
asS'3877'
p2873
(lp2874
I14615640
aI20240
asS'1286'
p2875
(lp2876
I509681
aI205
asS'11'
p2877
(lp2878
I1804
aI882
asS'10'
p2879
(lp2880
I1643
aI161
asS'13'
p2881
(lp2882
I2858
aI158
asS'12'
p2883
(lp2884
I2686
aI172
asS'15'
p2885
(lp2886
I3356
aI169
asS'14'
p2887
(lp2888
I3016
aI340
asS'17'
p2889
(lp2890
I3694
aI205
asS'16'
p2891
(lp2892
I3525
aI169
asS'19'
p2893
(lp2894
I4061
aI156
asS'18'
p2895
(lp2896
I3899
aI162
asS'3118'
p2897
(lp2898
I2108930
aI669
asS'3274'
p2899
(lp2900
I3466265
aI8213
asS'3275'
p2901
(lp2902
I3474478
aI28614
asS'2382'
p2903
(lp2904
I1431756
aI208
asS'3272'
p2905
(lp2906
I3448374
aI4993
asS'3194'
p2907
(lp2908
I2181116
aI523
asS'3904'
p2909
(lp2910
I15114461
aI9340
asS'3905'
p2911
(lp2912
I15123801
aI22536
asS'3906'
p2913
(lp2914
I15146337
aI13065
asS'3907'
p2915
(lp2916
I15159402
aI2517
asS'3900'
p2917
(lp2918
I15028343
aI24258
asS'3270'
p2919
(lp2920
I3423914
aI3462
asS'3902'
p2921
(lp2922
I15077434
aI7598
asS'3903'
p2923
(lp2924
I15085032
aI29429
asS'3027'
p2925
(lp2926
I2003455
aI1078
asS'3271'
p2927
(lp2928
I3427376
aI20998
asS'3908'
p2929
(lp2930
I15161919
aI16816
asS'3909'
p2931
(lp2932
I15178735
aI11565
asS'3111'
p2933
(lp2934
I2098920
aI1167
asS'3193'
p2935
(lp2936
I2180610
aI506
asS'4199'
p2937
(lp2938
I20587943
aI12673
asS'4167'
p2939
(lp2940
I19994772
aI4923
asS'4166'
p2941
(lp2942
I19970597
aI24175
asS'4165'
p2943
(lp2944
I19960656
aI9941
asS'4164'
p2945
(lp2946
I19942430
aI18226
asS'4163'
p2947
(lp2948
I19934355
aI8075
asS'4162'
p2949
(lp2950
I19921433
aI12922
asS'4161'
p2951
(lp2952
I19898351
aI23082
asS'4160'
p2953
(lp2954
I19874886
aI23465
asS'2742'
p2955
(lp2956
I1725352
aI1094
asS'4169'
p2957
(lp2958
I20030862
aI20913
asS'4168'
p2959
(lp2960
I19999695
aI31167
asS'1534'
p2961
(lp2962
I701218
aI945
asS'3278'
p2963
(lp2964
I3526401
aI29073
asS'3192'
p2965
(lp2966
I2179985
aI625
asS'201'
p2967
(lp2968
I57398
aI169
asS'200'
p2969
(lp2970
I57224
aI174
asS'203'
p2971
(lp2972
I58250
aI214
asS'202'
p2973
(lp2974
I57567
aI683
asS'205'
p2975
(lp2976
I58642
aI1392
asS'204'
p2977
(lp2978
I58464
aI178
asS'207'
p2979
(lp2980
I60248
aI229
asS'206'
p2981
(lp2982
I60034
aI214
asS'209'
p2983
(lp2984
I60700
aI404
asS'208'
p2985
(lp2986
I60477
aI223
asS'2745'
p2987
(lp2988
I1727498
aI583
asS'3476'
p2989
(lp2990
I7024953
aI6685
asS'3989'
p2991
(lp2992
I16570720
aI12013
asS'1573'
p2993
(lp2994
I729659
aI334
asS'3477'
p2995
(lp2996
I7031638
aI19673
asS'1572'
p2997
(lp2998
I727989
aI1670
asS'3191'
p2999
(lp3000
I2179535
aI450
asS'4197'
p3001
(lp3002
I20556157
aI4867
asS'1571'
p3003
(lp3004
I727210
aI779
asS'3471'
p3005
(lp3006
I6915696
aI9696
asS'2239'
p3007
(lp3008
I1304431
aI383
asS'2238'
p3009
(lp3010
I1304256
aI175
asS'1570'
p3011
(lp3012
I726224
aI986
asS'3472'
p3013
(lp3014
I6925392
aI20039
asS'2231'
p3015
(lp3016
I1298084
aI911
asS'1577'
p3017
(lp3018
I730560
aI221
asS'2233'
p3019
(lp3020
I1300425
aI2858
asS'2232'
p3021
(lp3022
I1298995
aI1430
asS'2235'
p3023
(lp3024
I1303513
aI235
asS'2234'
p3025
(lp3026
I1303283
aI230
asS'2237'
p3027
(lp3028
I1304096
aI160
asS'1576'
p3029
(lp3030
I730356
aI204
asS'1575'
p3031
(lp3032
I730175
aI181
asS'3190'
p3033
(lp3034
I2179088
aI447
asS'1574'
p3035
(lp3036
I729993
aI182
asS'3577'
p3037
(lp3038
I9076825
aI26030
asS'2185'
p3039
(lp3040
I1249365
aI711
asS'3498'
p3041
(lp3042
I7391471
aI30770
asS'3499'
p3043
(lp3044
I7422241
aI6051
asS'3496'
p3045
(lp3046
I7354965
aI33395
asS'3497'
p3047
(lp3048
I7388360
aI3111
asS'3494'
p3049
(lp3050
I7327843
aI14614
asS'2184'
p3051
(lp3052
I1248113
aI1252
asS'3492'
p3053
(lp3054
I7294090
aI7879
asS'3493'
p3055
(lp3056
I7301969
aI25874
asS'3490'
p3057
(lp3058
I7257591
aI11464
asS'3223'
p3059
(lp3060
I2557471
aI36329
asS'2095'
p3061
(lp3062
I1166720
aI1761
asS'2094'
p3063
(lp3064
I1165805
aI915
asS'2097'
p3065
(lp3066
I1169878
aI1127
asS'2096'
p3067
(lp3068
I1168481
aI1397
asS'2091'
p3069
(lp3070
I1161511
aI1513
asS'2090'
p3071
(lp3072
I1161067
aI444
asS'2093'
p3073
(lp3074
I1164624
aI1181
asS'2092'
p3075
(lp3076
I1163024
aI1600
asS'3654'
p3077
(lp3078
I10469752
aI6076
asS'3655'
p3079
(lp3080
I10475828
aI28149
asS'3656'
p3081
(lp3082
I10503977
aI15802
asS'3657'
p3083
(lp3084
I10519779
aI32498
asS'2099'
p3085
(lp3086
I1171312
aI437
asS'2098'
p3087
(lp3088
I1171005
aI307
asS'3652'
p3089
(lp3090
I10411465
aI27099
asS'3653'
p3091
(lp3092
I10438564
aI31188
asS'2525'
p3093
(lp3094
I1533130
aI1226
asS'2524'
p3095
(lp3096
I1531924
aI1206
asS'2527'
p3097
(lp3098
I1535726
aI939
asS'2188'
p3099
(lp3100
I1252725
aI1697
asS'2521'
p3101
(lp3102
I1529402
aI441
asS'2520'
p3103
(lp3104
I1529069
aI333
asS'2523'
p3105
(lp3106
I1531013
aI911
asS'2522'
p3107
(lp3108
I1529843
aI1170
asS'2529'
p3109
(lp3110
I1536956
aI330
asS'2528'
p3111
(lp3112
I1536665
aI291
asS'4192'
p3113
(lp3114
I20452968
aI21149
asS'2709'
p3115
(lp3116
I1686206
aI1622
asS'2708'
p3117
(lp3118
I1684704
aI1502
asS'2705'
p3119
(lp3120
I1681949
aI1211
asS'2704'
p3121
(lp3122
I1680562
aI1387
asS'2707'
p3123
(lp3124
I1683633
aI1071
asS'2706'
p3125
(lp3126
I1683160
aI473
asS'2701'
p3127
(lp3128
I1676956
aI1182
asS'2700'
p3129
(lp3130
I1676121
aI835
asS'2703'
p3131
(lp3132
I1679459
aI1103
asS'2702'
p3133
(lp3134
I1678138
aI1321
asS'4193'
p3135
(lp3136
I20474117
aI5525
asS'4090'
p3137
(lp3138
I18429898
aI19687
asS'1829'
p3139
(lp3140
I946812
aI1463
asS'1828'
p3141
(lp3142
I945661
aI1151
asS'2951'
p3143
(lp3144
I1925459
aI1362
asS'1825'
p3145
(lp3146
I940048
aI2048
asS'1824'
p3147
(lp3148
I938003
aI2045
asS'1827'
p3149
(lp3150
I943946
aI1715
asS'1826'
p3151
(lp3152
I942096
aI1850
asS'1821'
p3153
(lp3154
I937226
aI269
asS'1820'
p3155
(lp3156
I936956
aI270
asS'1823'
p3157
(lp3158
I937751
aI252
asS'1822'
p3159
(lp3160
I937495
aI256
asS'928'
p3161
(lp3162
I311303
aI156
asS'929'
p3163
(lp3164
I311459
aI202
asS'2145'
p3165
(lp3166
I1207942
aI1301
asS'2144'
p3167
(lp3168
I1206698
aI1244
asS'2143'
p3169
(lp3170
I1206358
aI340
asS'2142'
p3171
(lp3172
I1205051
aI1307
asS'2141'
p3173
(lp3174
I1204287
aI764
asS'2140'
p3175
(lp3176
I1203414
aI873
asS'920'
p3177
(lp3178
I309927
aI215
asS'921'
p3179
(lp3180
I310142
aI167
asS'922'
p3181
(lp3182
I310309
aI150
asS'923'
p3183
(lp3184
I310459
aI145
asS'924'
p3185
(lp3186
I310604
aI143
asS'925'
p3187
(lp3188
I310747
aI194
asS'926'
p3189
(lp3190
I310941
aI149
asS'927'
p3191
(lp3192
I311090
aI213
asS'3669'
p3193
(lp3194
I10764503
aI17280
asS'3950'
p3195
(lp3196
I15804401
aI28189
asS'4155'
p3197
(lp3198
I19748433
aI23623
asS'2411'
p3199
(lp3200
I1452019
aI588
asS'4191'
p3201
(lp3202
I20437519
aI15449
asS'1920'
p3203
(lp3204
I1024055
aI352
asS'1921'
p3205
(lp3206
I1024407
aI533
asS'1922'
p3207
(lp3208
I1024940
aI1123
asS'1923'
p3209
(lp3210
I1026063
aI545
asS'1924'
p3211
(lp3212
I1026608
aI1434
asS'1925'
p3213
(lp3214
I1028042
aI998
asS'1926'
p3215
(lp3216
I1029040
aI847
asS'1927'
p3217
(lp3218
I1029887
aI1191
asS'1928'
p3219
(lp3220
I1031078
aI1492
asS'1929'
p3221
(lp3222
I1032570
aI1117
asS'3069'
p3223
(lp3224
I2048017
aI1580
asS'3145'
p3225
(lp3226
I2136295
aI1026
asS'832'
p3227
(lp3228
I277039
aI162
asS'833'
p3229
(lp3230
I277201
aI181
asS'830'
p3231
(lp3232
I276258
aI563
asS'831'
p3233
(lp3234
I276821
aI218
asS'836'
p3235
(lp3236
I278033
aI216
asS'837'
p3237
(lp3238
I278249
aI158
asS'834'
p3239
(lp3240
I277382
aI474
asS'835'
p3241
(lp3242
I277856
aI177
asS'838'
p3243
(lp3244
I278407
aI153
asS'839'
p3245
(lp3246
I278560
aI175
asS'3478'
p3247
(lp3248
I7051311
aI12145
asS'3479'
p3249
(lp3250
I7063456
aI19645
asS'3'
p3251
(lp3252
I574
aI159
asS'1986'
p3253
(lp3254
I1081535
aI283
asS'3332'
p3255
(lp3256
I4433641
aI25717
asS'3199'
p3257
(lp3258
I2183863
aI1276
asS'3941'
p3259
(lp3260
I15680682
aI26118
asS'3319'
p3261
(lp3262
I4233054
aI15435
asS'3318'
p3263
(lp3264
I4224504
aI8550
asS'2511'
p3265
(lp3266
I1522191
aI148
asS'3311'
p3267
(lp3268
I4147653
aI786
asS'3310'
p3269
(lp3270
I4133847
aI13806
asS'3313'
p3271
(lp3272
I4160994
aI28609
asS'3312'
p3273
(lp3274
I4148439
aI12555
asS'3315'
p3275
(lp3276
I4192895
aI9540
asS'1987'
p3277
(lp3278
I1081818
aI560
asS'1532'
p3279
(lp3280
I700279
aI173
asS'3316'
p3281
(lp3282
I4202435
aI1824
asS'784'
p3283
(lp3284
I261677
aI148
asS'785'
p3285
(lp3286
I261825
aI300
asS'786'
p3287
(lp3288
I262125
aI402
asS'787'
p3289
(lp3290
I262527
aI149
asS'780'
p3291
(lp3292
I260903
aI191
asS'781'
p3293
(lp3294
I261094
aI149
asS'782'
p3295
(lp3296
I261243
aI149
asS'783'
p3297
(lp3298
I261392
aI285
asS'1726'
p3299
(lp3300
I855095
aI1668
asS'1727'
p3301
(lp3302
I856763
aI1832
asS'1724'
p3303
(lp3304
I852686
aI750
asS'1725'
p3305
(lp3306
I853436
aI1659
asS'788'
p3307
(lp3308
I262676
aI195
asS'789'
p3309
(lp3310
I262871
aI148
asS'1720'
p3311
(lp3312
I849040
aI659
asS'1721'
p3313
(lp3314
I849699
aI1193
asS'3361'
p3315
(lp3316
I4917012
aI21068
asS'2355'
p3317
(lp3318
I1400783
aI1413
asS'3330'
p3319
(lp3320
I4392470
aI10299
asS'2439'
p3321
(lp3322
I1471785
aI816
asS'60'
p3323
(lp3324
I15076
aI183
asS'61'
p3325
(lp3326
I15259
aI146
asS'62'
p3327
(lp3328
I15405
aI172
asS'63'
p3329
(lp3330
I15577
aI482
asS'64'
p3331
(lp3332
I16059
aI189
asS'65'
p3333
(lp3334
I16248
aI196
asS'66'
p3335
(lp3336
I16444
aI174
asS'67'
p3337
(lp3338
I16618
aI178
asS'68'
p3339
(lp3340
I16796
aI843
asS'69'
p3341
(lp3342
I17639
aI296
asS'3009'
p3343
(lp3344
I1984183
aI725
asS'3008'
p3345
(lp3346
I1982966
aI1217
asS'1371'
p3347
(lp3348
I565590
aI191
asS'1588'
p3349
(lp3350
I733601
aI864
asS'1589'
p3351
(lp3352
I734465
aI1145
asS'1370'
p3353
(lp3354
I565380
aI210
asS'1582'
p3355
(lp3356
I731686
aI166
asS'1583'
p3357
(lp3358
I731852
aI282
asS'1580'
p3359
(lp3360
I731175
aI207
asS'1581'
p3361
(lp3362
I731382
aI304
asS'1586'
p3363
(lp3364
I732548
aI387
asS'1373'
p3365
(lp3366
I565991
aI339
asS'1584'
p3367
(lp3368
I732134
aI208
asS'1585'
p3369
(lp3370
I732342
aI206
asS'2433'
p3371
(lp3372
I1464106
aI1175
asS'1038'
p3373
(lp3374
I362426
aI187
asS'1039'
p3375
(lp3376
I362613
aI179
asS'3317'
p3377
(lp3378
I4204259
aI20245
asS'508'
p3379
(lp3380
I163123
aI150
asS'509'
p3381
(lp3382
I163273
aI151
asS'1032'
p3383
(lp3384
I358246
aI1257
asS'507'
p3385
(lp3386
I162812
aI311
asS'1030'
p3387
(lp3388
I357048
aI864
asS'505'
p3389
(lp3390
I162502
aI160
asS'502'
p3391
(lp3392
I162007
aI155
asS'503'
p3393
(lp3394
I162162
aI194
asS'500'
p3395
(lp3396
I161620
aI146
asS'501'
p3397
(lp3398
I161766
aI241
asS'1212'
p3399
(lp3400
I463794
aI416
asS'1213'
p3401
(lp3402
I464210
aI351
asS'632'
p3403
(lp3404
I202618
aI635
asS'633'
p3405
(lp3406
I203253
aI348
asS'1216'
p3407
(lp3408
I467186
aI891
asS'1217'
p3409
(lp3410
I468077
aI182
asS'636'
p3411
(lp3412
I204146
aI201
asS'637'
p3413
(lp3414
I204347
aI1179
asS'638'
p3415
(lp3416
I205526
aI202
asS'639'
p3417
(lp3418
I205728
aI173
asS'1218'
p3419
(lp3420
I468259
aI194
asS'1219'
p3421
(lp3422
I468453
aI246
asS'3024'
p3423
(lp3424
I1999982
aI1182
asS'2416'
p3425
(lp3426
I1454286
aI365
asS'3335'
p3427
(lp3428
I4504194
aI10105
asS'465'
p3429
(lp3430
I149958
aI144
asS'2899'
p3431
(lp3432
I1868113
aI963
asS'1728'
p3433
(lp3434
I858595
aI2079
asS'2895'
p3435
(lp3436
I1863755
aI774
asS'2894'
p3437
(lp3438
I1862782
aI973
asS'2897'
p3439
(lp3440
I1865535
aI1422
asS'1729'
p3441
(lp3442
I860674
aI325
asS'2891'
p3443
(lp3444
I1859413
aI758
asS'2890'
p3445
(lp3446
I1858157
aI1256
asS'2893'
p3447
(lp3448
I1861151
aI1631
asS'2892'
p3449
(lp3450
I1860171
aI980
asS'1106'
p3451
(lp3452
I394551
aI160
asS'1107'
p3453
(lp3454
I394711
aI245
asS'1104'
p3455
(lp3456
I393901
aI237
asS'1105'
p3457
(lp3458
I394138
aI413
asS'1102'
p3459
(lp3460
I392590
aI1149
asS'1103'
p3461
(lp3462
I393739
aI162
asS'1100'
p3463
(lp3464
I392094
aI293
asS'1101'
p3465
(lp3466
I392387
aI203
asS'3334'
p3467
(lp3468
I4492971
aI11223
asS'1458'
p3469
(lp3470
I633774
aI923
asS'1459'
p3471
(lp3472
I634697
aI610
asS'1108'
p3473
(lp3474
I394956
aI1260
asS'1109'
p3475
(lp3476
I396216
aI942
asS'3862'
p3477
(lp3478
I14313681
aI24171
asS'4021'
p3479
(lp3480
I17123785
aI24364
asS'3869'
p3481
(lp3482
I14444508
aI23651
asS'3868'
p3483
(lp3484
I14410250
aI34258
asS'4084'
p3485
(lp3486
I18283805
aI35454
asS'4085'
p3487
(lp3488
I18319259
aI26067
asS'4086'
p3489
(lp3490
I18345326
aI8785
asS'4087'
p3491
(lp3492
I18354111
aI32749
asS'3863'
p3493
(lp3494
I14337852
aI12851
asS'1722'
p3495
(lp3496
I850892
aI1049
asS'3861'
p3497
(lp3498
I14287442
aI26239
asS'3860'
p3499
(lp3500
I14265142
aI22300
asS'3867'
p3501
(lp3502
I14402768
aI7482
asS'3866'
p3503
(lp3504
I14382763
aI20005
asS'3865'
p3505
(lp3506
I14364092
aI18671
asS'1723'
p3507
(lp3508
I851941
aI745
asS'3737'
p3509
(lp3510
I11968804
aI29882
asS'3837'
p3511
(lp3512
I13838687
aI7433
asS'3736'
p3513
(lp3514
I11963473
aI5331
asS'3735'
p3515
(lp3516
I11954706
aI8767
asS'3831'
p3517
(lp3518
I13757130
aI20055
asS'1897'
p3519
(lp3520
I1006508
aI223
asS'3733'
p3521
(lp3522
I11936676
aI6620
asS'1891'
p3523
(lp3524
I1002062
aI1154
asS'3731'
p3525
(lp3526
I11899068
aI27851
asS'3730'
p3527
(lp3528
I11877944
aI21124
asS'3917'
p3529
(lp3530
I15308925
aI12561
asS'2136'
p3531
(lp3532
I1199624
aI383
asS'3915'
p3533
(lp3534
I15263262
aI28119
asS'3914'
p3535
(lp3536
I15254000
aI9262
asS'3913'
p3537
(lp3538
I15246183
aI7817
asS'3912'
p3539
(lp3540
I15221502
aI24681
asS'3911'
p3541
(lp3542
I15195885
aI25617
asS'2137'
p3543
(lp3544
I1200007
aI1122
asS'3919'
p3545
(lp3546
I15334181
aI29524
asS'3918'
p3547
(lp3548
I15321486
aI12695
asS'2794'
p3549
(lp3550
I1760251
aI1251
asS'3932'
p3551
(lp3552
I15523920
aI18602
asS'3070'
p3553
(lp3554
I2049597
aI1074
asS'4153'
p3555
(lp3556
I19725248
aI9073
asS'4150'
p3557
(lp3558
I19645763
aI28966
asS'4151'
p3559
(lp3560
I19674729
aI20108
asS'4156'
p3561
(lp3562
I19772056
aI27449
asS'4157'
p3563
(lp3564
I19799505
aI17301
asS'4154'
p3565
(lp3566
I19734321
aI14112
asS'4030'
p3567
(lp3568
I17289505
aI4472
asS'4158'
p3569
(lp3570
I19816806
aI27475
asS'4159'
p3571
(lp3572
I19844281
aI30605
asS'2965'
p3573
(lp3574
I1938109
aI587
asS'3071'
p3575
(lp3576
I2050671
aI963
asS'4034'
p3577
(lp3578
I17363641
aI11524
asS'216'
p3579
(lp3580
I63732
aI170
asS'217'
p3581
(lp3582
I63902
aI195
asS'214'
p3583
(lp3584
I63203
aI327
asS'215'
p3585
(lp3586
I63530
aI202
asS'212'
p3587
(lp3588
I62890
aI146
asS'213'
p3589
(lp3590
I63036
aI167
asS'210'
p3591
(lp3592
I61104
aI1636
asS'211'
p3593
(lp3594
I62740
aI150
asS'1530'
p3595
(lp3596
I698412
aI709
asS'4036'
p3597
(lp3598
I17396994
aI4160
asS'218'
p3599
(lp3600
I64097
aI169
asS'219'
p3601
(lp3602
I64266
aI148
asS'3094'
p3603
(lp3604
I2080490
aI1784
asS'2138'
p3605
(lp3606
I1201129
aI1498
asS'2139'
p3607
(lp3608
I1202627
aI787
asS'4140'
p3609
(lp3610
I19464551
aI12824
asS'4'
p3611
(lp3612
I733
aI153
asS'3489'
p3613
(lp3614
I7238791
aI18800
asS'3488'
p3615
(lp3616
I7223820
aI14971
asS'3481'
p3617
(lp3618
I7119542
aI24888
asS'3480'
p3619
(lp3620
I7083101
aI36441
asS'3284'
p3621
(lp3622
I3620102
aI13732
asS'3482'
p3623
(lp3624
I7144430
aI1662
asS'3485'
p3625
(lp3626
I7173247
aI16653
asS'2669'
p3627
(lp3628
I1648005
aI1759
asS'3487'
p3629
(lp3630
I7218872
aI4948
asS'3486'
p3631
(lp3632
I7189900
aI28972
asS'3649'
p3633
(lp3634
I10375312
aI9336
asS'3648'
p3635
(lp3636
I10374164
aI1148
asS'3074'
p3637
(lp3638
I2054916
aI1462
asS'3646'
p3639
(lp3640
I10360844
aI10605
asS'3645'
p3641
(lp3642
I10339365
aI21479
asS'3644'
p3643
(lp3644
I10319107
aI20258
asS'3643'
p3645
(lp3646
I10300452
aI18655
asS'3642'
p3647
(lp3648
I10271922
aI28530
asS'3641'
p3649
(lp3650
I10269844
aI2078
asS'3640'
p3651
(lp3652
I10252291
aI17553
asS'2550'
p3653
(lp3654
I1557544
aI480
asS'2551'
p3655
(lp3656
I1558024
aI276
asS'2552'
p3657
(lp3658
I1558300
aI822
asS'2553'
p3659
(lp3660
I1559122
aI285
asS'2554'
p3661
(lp3662
I1559407
aI1160
asS'2555'
p3663
(lp3664
I1560567
aI997
asS'2556'
p3665
(lp3666
I1561564
aI1410
asS'2557'
p3667
(lp3668
I1562974
aI821
asS'2558'
p3669
(lp3670
I1563795
aI1068
asS'2559'
p3671
(lp3672
I1564863
aI1366
asS'3007'
p3673
(lp3674
I1982800
aI166
asS'2396'
p3675
(lp3676
I1440054
aI1692
asS'2397'
p3677
(lp3678
I1441746
aI174
asS'2394'
p3679
(lp3680
I1439058
aI462
asS'2395'
p3681
(lp3682
I1439520
aI534
asS'2392'
p3683
(lp3684
I1438252
aI340
asS'2393'
p3685
(lp3686
I1438592
aI466
asS'2390'
p3687
(lp3688
I1436572
aI1293
asS'2391'
p3689
(lp3690
I1437865
aI387
asS'3001'
p3691
(lp3692
I1974517
aI1354
asS'4132'
p3693
(lp3694
I19267248
aI33644
asS'2398'
p3695
(lp3696
I1441920
aI1017
asS'2399'
p3697
(lp3698
I1442937
aI513
asS'2778'
p3699
(lp3700
I1752019
aI190
asS'2779'
p3701
(lp3702
I1752209
aI563
asS'3003'
p3703
(lp3704
I1977313
aI1270
asS'3282'
p3705
(lp3706
I3613471
aI1631
asS'2770'
p3707
(lp3708
I1746059
aI1279
asS'2771'
p3709
(lp3710
I1747338
aI966
asS'2772'
p3711
(lp3712
I1748304
aI777
asS'2773'
p3713
(lp3714
I1749081
aI438
asS'2774'
p3715
(lp3716
I1749519
aI155
asS'2775'
p3717
(lp3718
I1749674
aI234
asS'2776'
p3719
(lp3720
I1749908
aI1016
asS'2777'
p3721
(lp3722
I1750924
aI1095
asS'4081'
p3723
(lp3724
I18227193
aI12774
asS'3166'
p3725
(lp3726
I2158020
aI1219
asS'2751'
p3727
(lp3728
I1733019
aI1201
asS'2803'
p3729
(lp3730
I1768642
aI398
asS'3940'
p3731
(lp3732
I15649381
aI31301
asS'3164'
p3733
(lp3734
I2155780
aI1058
asS'1858'
p3735
(lp3736
I972733
aI594
asS'1859'
p3737
(lp3738
I973327
aI498
asS'3165'
p3739
(lp3740
I2156838
aI1182
asS'3281'
p3741
(lp3742
I3610973
aI2498
asS'1850'
p3743
(lp3744
I963430
aI312
asS'1851'
p3745
(lp3746
I963742
aI225
asS'1852'
p3747
(lp3748
I963967
aI905
asS'1853'
p3749
(lp3750
I964872
aI1512
asS'1854'
p3751
(lp3752
I966384
aI2006
asS'1855'
p3753
(lp3754
I968390
aI1204
asS'1856'
p3755
(lp3756
I969594
aI2790
asS'1857'
p3757
(lp3758
I972384
aI349
asS'2172'
p3759
(lp3760
I1235101
aI202
asS'2173'
p3761
(lp3762
I1235303
aI395
asS'2170'
p3763
(lp3764
I1234205
aI690
asS'2171'
p3765
(lp3766
I1234895
aI206
asS'919'
p3767
(lp3768
I308718
aI1209
asS'918'
p3769
(lp3770
I308588
aI130
asS'2174'
p3771
(lp3772
I1235698
aI686
asS'2175'
p3773
(lp3774
I1236384
aI1465
asS'915'
p3775
(lp3776
I307537
aI458
asS'914'
p3777
(lp3778
I307072
aI465
asS'917'
p3779
(lp3780
I308124
aI464
asS'916'
p3781
(lp3782
I307995
aI129
asS'911'
p3783
(lp3784
I306284
aI442
asS'910'
p3785
(lp3786
I306125
aI159
asS'913'
p3787
(lp3788
I306942
aI130
asS'912'
p3789
(lp3790
I306726
aI216
asS'2604'
p3791
(lp3792
I1598055
aI863
asS'2605'
p3793
(lp3794
I1598918
aI896
asS'2606'
p3795
(lp3796
I1599814
aI1256
asS'2607'
p3797
(lp3798
I1601070
aI381
asS'2600'
p3799
(lp3800
I1596167
aI271
asS'2601'
p3801
(lp3802
I1596438
aI339
asS'2602'
p3803
(lp3804
I1596777
aI257
asS'2603'
p3805
(lp3806
I1597034
aI1021
asS'3846'
p3807
(lp3808
I14028011
aI15770
asS'2608'
p3809
(lp3810
I1601451
aI268
asS'2609'
p3811
(lp3812
I1601719
aI725
asS'1933'
p3813
(lp3814
I1037158
aI901
asS'1932'
p3815
(lp3816
I1036033
aI1125
asS'1931'
p3817
(lp3818
I1034987
aI1046
asS'1930'
p3819
(lp3820
I1033687
aI1300
asS'1937'
p3821
(lp3822
I1042098
aI808
asS'1936'
p3823
(lp3824
I1039747
aI2351
asS'1935'
p3825
(lp3826
I1038821
aI926
asS'1934'
p3827
(lp3828
I1038059
aI762
asS'3269'
p3829
(lp3830
I3398558
aI25356
asS'3268'
p3831
(lp3832
I3391288
aI7270
asS'1939'
p3833
(lp3834
I1043789
aI1552
asS'1938'
p3835
(lp3836
I1042906
aI883
asS'3369'
p3837
(lp3838
I5043172
aI3537
asS'847'
p3839
(lp3840
I279840
aI230
asS'846'
p3841
(lp3842
I279689
aI151
asS'845'
p3843
(lp3844
I279521
aI168
asS'844'
p3845
(lp3846
I279376
aI145
asS'843'
p3847
(lp3848
I279237
aI139
asS'842'
p3849
(lp3850
I279060
aI177
asS'841'
p3851
(lp3852
I278898
aI162
asS'840'
p3853
(lp3854
I278735
aI163
asS'849'
p3855
(lp3856
I280633
aI1778
asS'848'
p3857
(lp3858
I280070
aI563
asS'3364'
p3859
(lp3860
I4979758
aI1867
asS'2406'
p3861
(lp3862
I1447906
aI1314
asS'663'
p3863
(lp3864
I213276
aI149
asS'1587'
p3865
(lp3866
I732935
aI666
asS'2407'
p3867
(lp3868
I1449220
aI1077
asS'1739'
p3869
(lp3870
I864662
aI849
asS'1738'
p3871
(lp3872
I863557
aI1105
asS'1731'
p3873
(lp3874
I861268
aI285
asS'1730'
p3875
(lp3876
I860999
aI269
asS'1733'
p3877
(lp3878
I861800
aI285
asS'1732'
p3879
(lp3880
I861553
aI247
asS'662'
p3881
(lp3882
I213123
aI153
asS'1734'
p3883
(lp3884
I862085
aI353
asS'1737'
p3885
(lp3886
I863370
aI187
asS'1736'
p3887
(lp3888
I863066
aI304
asS'3895'
p3889
(lp3890
I14918062
aI3026
asS'2404'
p3891
(lp3892
I1447330
aI298
asS'753'
p3893
(lp3894
I250164
aI472
asS'752'
p3895
(lp3896
I250016
aI148
asS'751'
p3897
(lp3898
I249845
aI171
asS'750'
p3899
(lp3900
I249652
aI193
asS'757'
p3901
(lp3902
I251708
aI172
asS'756'
p3903
(lp3904
I251533
aI175
asS'755'
p3905
(lp3906
I250801
aI732
asS'754'
p3907
(lp3908
I250636
aI165
asS'759'
p3909
(lp3910
I252329
aI844
asS'758'
p3911
(lp3912
I251880
aI449
asS'3780'
p3913
(lp3914
I12878579
aI1429
asS'1595'
p3915
(lp3916
I740804
aI811
asS'506'
p3917
(lp3918
I162662
aI150
asS'1597'
p3919
(lp3920
I741795
aI357
asS'1596'
p3921
(lp3922
I741615
aI180
asS'1591'
p3923
(lp3924
I736511
aI1582
asS'1590'
p3925
(lp3926
I735610
aI901
asS'1593'
p3927
(lp3928
I738969
aI735
asS'1033'
p3929
(lp3930
I359503
aI1081
asS'2954'
p3931
(lp3932
I1928022
aI938
asS'2955'
p3933
(lp3934
I1928960
aI1103
asS'2956'
p3935
(lp3936
I1930063
aI969
asS'2957'
p3937
(lp3938
I1931032
aI1685
asS'1599'
p3939
(lp3940
I742344
aI194
asS'504'
p3941
(lp3942
I162356
aI146
asS'2952'
p3943
(lp3944
I1926821
aI490
asS'2953'
p3945
(lp3946
I1927311
aI711
asS'1025'
p3947
(lp3948
I352382
aI857
asS'1024'
p3949
(lp3950
I351684
aI698
asS'1027'
p3951
(lp3952
I354123
aI157
asS'1031'
p3953
(lp3954
I357912
aI334
asS'1021'
p3955
(lp3956
I350988
aI174
asS'1020'
p3957
(lp3958
I350764
aI224
asS'1023'
p3959
(lp3960
I351370
aI314
asS'1022'
p3961
(lp3962
I351162
aI208
asS'1036'
p3963
(lp3964
I362000
aI168
asS'3785'
p3965
(lp3966
I12968386
aI7866
asS'1029'
p3967
(lp3968
I355471
aI1577
asS'1028'
p3969
(lp3970
I354280
aI1191
asS'1037'
p3971
(lp3972
I362168
aI258
asS'1034'
p3973
(lp3974
I360584
aI710
asS'1035'
p3975
(lp3976
I361294
aI706
asS'3951'
p3977
(lp3978
I15832590
aI20589
asS'605'
p3979
(lp3980
I190621
aI652
asS'604'
p3981
(lp3982
I190488
aI133
asS'607'
p3983
(lp3984
I191472
aI145
asS'606'
p3985
(lp3986
I191273
aI199
asS'601'
p3987
(lp3988
I189945
aI187
asS'600'
p3989
(lp3990
I189141
aI804
asS'603'
p3991
(lp3992
I190272
aI216
asS'602'
p3993
(lp3994
I190132
aI140
asS'1205'
p3995
(lp3996
I460598
aI502
asS'1204'
p3997
(lp3998
I460313
aI285
asS'1207'
p3999
(lp4000
I462126
aI216
asS'1206'
p4001
(lp4002
I461100
aI1026
asS'609'
p4003
(lp4004
I191780
aI146
asS'1200'
p4005
(lp4006
I458800
aI990
asS'1203'
p4007
(lp4008
I460158
aI155
asS'1202'
p4009
(lp4010
I459995
aI163
asS'1211'
p4011
(lp4012
I463228
aI566
asS'3997'
p4013
(lp4014
I16705800
aI30817
asS'634'
p4015
(lp4016
I203601
aI280
asS'635'
p4017
(lp4018
I203881
aI265
asS'3108'
p4019
(lp4020
I2096669
aI514
asS'1214'
p4021
(lp4022
I464561
aI1023
asS'3104'
p4023
(lp4024
I2091911
aI883
asS'3105'
p4025
(lp4026
I2092794
aI1547
asS'3106'
p4027
(lp4028
I2094341
aI1659
asS'1215'
p4029
(lp4030
I465584
aI1602
asS'3100'
p4031
(lp4032
I2087862
aI985
asS'3101'
p4033
(lp4034
I2088847
aI1283
asS'3102'
p4035
(lp4036
I2090130
aI622
asS'3103'
p4037
(lp4038
I2090752
aI1159
asS'1111'
p4039
(lp4040
I397716
aI514
asS'1110'
p4041
(lp4042
I397158
aI558
asS'1113'
p4043
(lp4044
I399105
aI841
asS'1112'
p4045
(lp4046
I398230
aI875
asS'1115'
p4047
(lp4048
I400419
aI431
asS'1114'
p4049
(lp4050
I399946
aI473
asS'1117'
p4051
(lp4052
I401599
aI796
asS'464'
p4053
(lp4054
I147763
aI2195
asS'1119'
p4055
(lp4056
I402644
aI179
asS'1118'
p4057
(lp4058
I402395
aI249
asS'467'
p4059
(lp4060
I150261
aI172
asS'1449'
p4061
(lp4062
I626457
aI185
asS'1448'
p4063
(lp4064
I626263
aI194
asS'4093'
p4065
(lp4066
I18494182
aI11239
asS'4092'
p4067
(lp4068
I18466019
aI28163
asS'4091'
p4069
(lp4070
I18449585
aI16434
asS'466'
p4071
(lp4072
I150102
aI159
asS'4097'
p4073
(lp4074
I18554640
aI8917
asS'4096'
p4075
(lp4076
I18551284
aI3356
asS'4095'
p4077
(lp4078
I18515412
aI35872
asS'4094'
p4079
(lp4080
I18505421
aI9991
asS'1357'
p4081
(lp4082
I553782
aI173
asS'4099'
p4083
(lp4084
I18575287
aI27192
asS'4098'
p4085
(lp4086
I18563557
aI11730
asS'460'
p4087
(lp4088
I145158
aI148
asS'1355'
p4089
(lp4090
I553258
aI213
asS'489'
p4091
(lp4092
I156321
aI190
asS'488'
p4093
(lp4094
I156098
aI223
asS'487'
p4095
(lp4096
I155954
aI144
asS'486'
p4097
(lp4098
I155794
aI160
asS'485'
p4099
(lp4100
I155565
aI229
asS'1354'
p4101
(lp4102
I551538
aI1720
asS'483'
p4103
(lp4104
I153464
aI1943
asS'482'
p4105
(lp4106
I153292
aI172
asS'481'
p4107
(lp4108
I153091
aI201
asS'480'
p4109
(lp4110
I152904
aI187
asS'3705'
p4111
(lp4112
I11459076
aI9260
asS'3922'
p4113
(lp4114
I15378912
aI5483
asS'3923'
p4115
(lp4116
I15384395
aI12178
asS'3920'
p4117
(lp4118
I15363705
aI5828
asS'3921'
p4119
(lp4120
I15369533
aI9379
asS'3299'
p4121
(lp4122
I3950644
aI14661
asS'3927'
p4123
(lp4124
I15464102
aI775
asS'3924'
p4125
(lp4126
I15396573
aI18368
asS'3925'
p4127
(lp4128
I15414941
aI24281
asS'3952'
p4129
(lp4130
I15853179
aI28441
asS'3928'
p4131
(lp4132
I15464877
aI25950
asS'3929'
p4133
(lp4134
I15490827
aI7983
asS'3993'
p4135
(lp4136
I16622037
aI25856
asS'3647'
p4137
(lp4138
I10371449
aI2715
asS'4149'
p4139
(lp4140
I19629978
aI15785
asS'4148'
p4141
(lp4142
I19602001
aI27977
asS'4145'
p4143
(lp4144
I19551997
aI1702
asS'4144'
p4145
(lp4146
I19550709
aI1288
asS'4147'
p4147
(lp4148
I19566136
aI35865
asS'4146'
p4149
(lp4150
I19553699
aI12437
asS'4141'
p4151
(lp4152
I19477375
aI36548
asS'3992'
p4153
(lp4154
I16614477
aI7560
asS'4143'
p4155
(lp4156
I19530235
aI20474
asS'4142'
p4157
(lp4158
I19513923
aI16312
asS'3856'
p4159
(lp4160
I14183776
aI15454
asS'3857'
p4161
(lp4162
I14199230
aI16454
asS'3854'
p4163
(lp4164
I14168180
aI6381
asS'3855'
p4165
(lp4166
I14174561
aI9215
asS'3852'
p4167
(lp4168
I14129693
aI10771
asS'3853'
p4169
(lp4170
I14140464
aI27716
asS'3850'
p4171
(lp4172
I14110324
aI13039
asS'3851'
p4173
(lp4174
I14123363
aI6330
asS'3858'
p4175
(lp4176
I14215684
aI33187
asS'3859'
p4177
(lp4178
I14248871
aI16271
asS'3848'
p4179
(lp4180
I14076041
aI31269
asS'3005'
p4181
(lp4182
I1979903
aI1272
asS'3283'
p4183
(lp4184
I3615102
aI5000
asS'4012'
p4185
(lp4186
I17000320
aI1476
asS'2898'
p4187
(lp4188
I1866957
aI1156
asS'3004'
p4189
(lp4190
I1978583
aI1320
asS'3665'
p4191
(lp4192
I10702655
aI9799
asS'2896'
p4193
(lp4194
I1864529
aI1006
asS'199'
p4195
(lp4196
I57071
aI153
asS'198'
p4197
(lp4198
I56897
aI174
asS'3664'
p4199
(lp4200
I10682246
aI20409
asS'195'
p4201
(lp4202
I54364
aI137
asS'194'
p4203
(lp4204
I54179
aI185
asS'197'
p4205
(lp4206
I56751
aI146
asS'196'
p4207
(lp4208
I54501
aI2250
asS'191'
p4209
(lp4210
I53578
aI163
asS'190'
p4211
(lp4212
I53458
aI120
asS'193'
p4213
(lp4214
I54020
aI159
asS'192'
p4215
(lp4216
I53741
aI279
asS'3678'
p4217
(lp4218
I11008290
aI11392
asS'3679'
p4219
(lp4220
I11019682
aI15895
asS'3672'
p4221
(lp4222
I10836046
aI26359
asS'3673'
p4223
(lp4224
I10862405
aI34411
asS'3670'
p4225
(lp4226
I10781783
aI19388
asS'2408'
p4227
(lp4228
I1450297
aI532
asS'3676'
p4229
(lp4230
I10952039
aI33814
asS'3677'
p4231
(lp4232
I10985853
aI22437
asS'3674'
p4233
(lp4234
I10896816
aI35266
asS'3675'
p4235
(lp4236
I10932082
aI19957
asS'2543'
p4237
(lp4238
I1549416
aI1897
asS'1454'
p4239
(lp4240
I628866
aI1220
asS'2541'
p4241
(lp4242
I1546514
aI1556
asS'2540'
p4243
(lp4244
I1546315
aI199
asS'2547'
p4245
(lp4246
I1555398
aI1453
asS'2546'
p4247
(lp4248
I1553115
aI2283
asS'2545'
p4249
(lp4250
I1552142
aI973
asS'1455'
p4251
(lp4252
I630086
aI1556
asS'3006'
p4253
(lp4254
I1981175
aI1625
asS'2549'
p4255
(lp4256
I1557204
aI340
asS'2548'
p4257
(lp4258
I1556851
aI353
asS'1456'
p4259
(lp4260
I631642
aI1191
asS'2381'
p4261
(lp4262
I1431549
aI207
asS'2380'
p4263
(lp4264
I1429840
aI1709
asS'2383'
p4265
(lp4266
I1431964
aI1098
asS'1457'
p4267
(lp4268
I632833
aI941
asS'2385'
p4269
(lp4270
I1433289
aI261
asS'2384'
p4271
(lp4272
I1433062
aI227
asS'2387'
p4273
(lp4274
I1433761
aI734
asS'2386'
p4275
(lp4276
I1433550
aI211
asS'2389'
p4277
(lp4278
I1435756
aI816
asS'1450'
p4279
(lp4280
I626642
aI214
asS'1451'
p4281
(lp4282
I626856
aI176
asS'3580'
p4283
(lp4284
I9150664
aI15857
asS'3581'
p4285
(lp4286
I9166521
aI25098
asS'2769'
p4287
(lp4288
I1745388
aI671
asS'2768'
p4289
(lp4290
I1744460
aI928
asS'3584'
p4291
(lp4292
I9232272
aI10007
asS'1452'
p4293
(lp4294
I627032
aI181
asS'3586'
p4295
(lp4296
I9260229
aI16100
asS'3259'
p4297
(lp4298
I3225545
aI28922
asS'2763'
p4299
(lp4300
I1739119
aI310
asS'2762'
p4301
(lp4302
I1738878
aI241
asS'2761'
p4303
(lp4304
I1738700
aI178
asS'1453'
p4305
(lp4306
I627213
aI1653
asS'2767'
p4307
(lp4308
I1742993
aI1467
asS'2766'
p4309
(lp4310
I1741971
aI1022
asS'2765'
p4311
(lp4312
I1740205
aI1766
asS'2764'
p4313
(lp4314
I1739429
aI776
asS'1949'
p4315
(lp4316
I1054364
aI841
asS'2007'
p4317
(lp4318
I1098004
aI152
asS'902'
p4319
(lp4320
I304623
aI242
asS'903'
p4321
(lp4322
I304865
aI162
asS'900'
p4323
(lp4324
I304305
aI149
asS'901'
p4325
(lp4326
I304454
aI169
asS'906'
p4327
(lp4328
I305344
aI161
asS'907'
p4329
(lp4330
I305505
aI258
asS'904'
p4331
(lp4332
I305027
aI165
asS'905'
p4333
(lp4334
I305192
aI152
asS'1843'
p4335
(lp4336
I955706
aI599
asS'1511'
p4337
(lp4338
I684485
aI265
asS'908'
p4339
(lp4340
I305763
aI147
asS'909'
p4341
(lp4342
I305910
aI215
asS'1847'
p4343
(lp4344
I961305
aI1501
asS'1846'
p4345
(lp4346
I959634
aI1671
asS'1845'
p4347
(lp4348
I958322
aI1312
asS'1844'
p4349
(lp4350
I956305
aI2017
asS'3250'
p4351
(lp4352
I3058124
aI31966
asS'2169'
p4353
(lp4354
I1233299
aI906
asS'2168'
p4355
(lp4356
I1231907
aI1392
asS'3251'
p4357
(lp4358
I3090090
aI26727
asS'2165'
p4359
(lp4360
I1228518
aI782
asS'2164'
p4361
(lp4362
I1227427
aI1091
asS'2167'
p4363
(lp4364
I1230242
aI1665
asS'2166'
p4365
(lp4366
I1229300
aI942
asS'2161'
p4367
(lp4368
I1224755
aI195
asS'2160'
p4369
(lp4370
I1223447
aI1308
asS'2163'
p4371
(lp4372
I1225790
aI1637
asS'2162'
p4373
(lp4374
I1224950
aI840
asS'2617'
p4375
(lp4376
I1605234
aI222
asS'2616'
p4377
(lp4378
I1604428
aI806
asS'2615'
p4379
(lp4380
I1604112
aI316
asS'2614'
p4381
(lp4382
I1603855
aI257
asS'2613'
p4383
(lp4384
I1603647
aI208
asS'2612'
p4385
(lp4386
I1603420
aI227
asS'2611'
p4387
(lp4388
I1603226
aI194
asS'2610'
p4389
(lp4390
I1602444
aI782
asS'3254'
p4391
(lp4392
I3134160
aI22418
asS'4082'
p4393
(lp4394
I18239967
aI26390
asS'2619'
p4395
(lp4396
I1606416
aI1082
asS'1947'
p4397
(lp4398
I1051963
aI1312
asS'4083'
p4399
(lp4400
I18266357
aI17448
asS'3298'
p4401
(lp4402
I3928754
aI21890
asS'3256'
p4403
(lp4404
I3178224
aI28132
asS'1908'
p4405
(lp4406
I1014799
aI1643
asS'1909'
p4407
(lp4408
I1016442
aI564
asS'1906'
p4409
(lp4410
I1012773
aI1309
asS'1907'
p4411
(lp4412
I1014082
aI717
asS'1904'
p4413
(lp4414
I1011475
aI414
asS'1905'
p4415
(lp4416
I1011889
aI884
asS'1902'
p4417
(lp4418
I1010240
aI835
asS'1903'
p4419
(lp4420
I1011075
aI400
asS'1900'
p4421
(lp4422
I1007315
aI1297
asS'1901'
p4423
(lp4424
I1008612
aI1628
asS'854'
p4425
(lp4426
I284943
aI1324
asS'855'
p4427
(lp4428
I286267
aI1041
asS'856'
p4429
(lp4430
I287308
aI792
asS'857'
p4431
(lp4432
I288100
aI522
asS'850'
p4433
(lp4434
I282411
aI738
asS'851'
p4435
(lp4436
I283149
aI1011
asS'852'
p4437
(lp4438
I284160
aI451
asS'853'
p4439
(lp4440
I284611
aI332
asS'3458'
p4441
(lp4442
I6684916
aI8943
asS'3459'
p4443
(lp4444
I6693859
aI32446
asS'858'
p4445
(lp4446
I288622
aI750
asS'859'
p4447
(lp4448
I289372
aI335
asS'3293'
p4449
(lp4450
I3854750
aI13641
asS'4088'
p4451
(lp4452
I18386860
aI10631
asS'6'
p4453
(lp4454
I1025
aI169
asS'2463'
p4455
(lp4456
I1486681
aI187
asS'3864'
p4457
(lp4458
I14350703
aI13389
asS'740'
p4459
(lp4460
I248032
aI148
asS'741'
p4461
(lp4462
I248180
aI164
asS'742'
p4463
(lp4464
I248344
aI164
asS'743'
p4465
(lp4466
I248508
aI145
asS'744'
p4467
(lp4468
I248653
aI151
asS'745'
p4469
(lp4470
I248804
aI149
asS'746'
p4471
(lp4472
I248953
aI149
asS'747'
p4473
(lp4474
I249102
aI211
asS'748'
p4475
(lp4476
I249313
aI189
asS'749'
p4477
(lp4478
I249502
aI150
asS'2912'
p4479
(lp4480
I1881624
aI1119
asS'3063'
p4481
(lp4482
I2041431
aI319
asS'3062'
p4483
(lp4484
I2041097
aI334
asS'3061'
p4485
(lp4486
I2040783
aI314
asS'1798'
p4487
(lp4488
I923054
aI268
asS'3067'
p4489
(lp4490
I2045147
aI1788
asS'3066'
p4491
(lp4492
I2044153
aI994
asS'2949'
p4493
(lp4494
I1923151
aI1199
asS'2948'
p4495
(lp4496
I1922249
aI902
asS'2947'
p4497
(lp4498
I1921067
aI1182
asS'2946'
p4499
(lp4500
I1920056
aI1011
asS'2945'
p4501
(lp4502
I1919024
aI1032
asS'2944'
p4503
(lp4504
I1917963
aI1061
asS'2943'
p4505
(lp4506
I1916632
aI1331
asS'2942'
p4507
(lp4508
I1916338
aI294
asS'2941'
p4509
(lp4510
I1914991
aI1347
asS'2940'
p4511
(lp4512
I1913429
aI1562
asS'1050'
p4513
(lp4514
I368868
aI737
asS'1051'
p4515
(lp4516
I369605
aI2018
asS'1052'
p4517
(lp4518
I371623
aI649
asS'1053'
p4519
(lp4520
I372272
aI449
asS'1054'
p4521
(lp4522
I372721
aI155
asS'1055'
p4523
(lp4524
I372876
aI176
asS'1056'
p4525
(lp4526
I373052
aI150
asS'1057'
p4527
(lp4528
I373202
aI166
asS'1058'
p4529
(lp4530
I373368
aI178
asS'1059'
p4531
(lp4532
I373546
aI250
asS'2917'
p4533
(lp4534
I1887019
aI231
asS'1696'
p4535
(lp4536
I827830
aI734
asS'1697'
p4537
(lp4538
I828564
aI1153
asS'1694'
p4539
(lp4540
I825627
aI605
asS'1695'
p4541
(lp4542
I826232
aI1598
asS'1692'
p4543
(lp4544
I823136
aI688
asS'1693'
p4545
(lp4546
I823824
aI1803
asS'1690'
p4547
(lp4548
I821224
aI301
asS'1691'
p4549
(lp4550
I821525
aI1611
asS'2595'
p4551
(lp4552
I1589488
aI1297
asS'1791'
p4553
(lp4554
I919458
aI278
asS'1698'
p4555
(lp4556
I829717
aI1394
asS'1699'
p4557
(lp4558
I831111
aI1604
asS'1278'
p4559
(lp4560
I505403
aI1284
asS'1279'
p4561
(lp4562
I506687
aI478
asS'618'
p4563
(lp4564
I196275
aI340
asS'619'
p4565
(lp4566
I196615
aI1255
asS'612'
p4567
(lp4568
I192223
aI191
asS'613'
p4569
(lp4570
I192414
aI237
asS'610'
p4571
(lp4572
I191926
aI140
asS'611'
p4573
(lp4574
I192066
aI157
asS'616'
p4575
(lp4576
I193750
aI2045
asS'617'
p4577
(lp4578
I195795
aI480
asS'614'
p4579
(lp4580
I192651
aI158
asS'615'
p4581
(lp4582
I192809
aI941
asS'1795'
p4583
(lp4584
I922235
aI274
asS'1794'
p4585
(lp4586
I921792
aI443
asS'3333'
p4587
(lp4588
I4459358
aI33613
asS'3119'
p4589
(lp4590
I2109599
aI729
asS'1491'
p4591
(lp4592
I666695
aI4816
asS'3117'
p4593
(lp4594
I2107800
aI1130
asS'3116'
p4595
(lp4596
I2106528
aI1272
asS'3115'
p4597
(lp4598
I2105000
aI1528
asS'3114'
p4599
(lp4600
I2103586
aI1414
asS'3113'
p4601
(lp4602
I2102558
aI1028
asS'3112'
p4603
(lp4604
I2100087
aI2471
asS'2469'
p4605
(lp4606
I1488500
aI611
asS'3110'
p4607
(lp4608
I2097812
aI1108
asS'1472'
p4609
(lp4610
I650809
aI547
asS'1473'
p4611
(lp4612
I651356
aI577
asS'1470'
p4613
(lp4614
I647106
aI2043
asS'1471'
p4615
(lp4616
I649149
aI1660
asS'1476'
p4617
(lp4618
I653260
aI1520
asS'1477'
p4619
(lp4620
I654780
aI2116
asS'1474'
p4621
(lp4622
I651933
aI759
asS'1475'
p4623
(lp4624
I652692
aI568
asS'3337'
p4625
(lp4626
I4516026
aI11570
asS'1478'
p4627
(lp4628
I656896
aI196
asS'1479'
p4629
(lp4630
I657092
aI185
asS'3336'
p4631
(lp4632
I4514299
aI1727
asS'1304'
p4633
(lp4634
I517922
aI362
asS'1305'
p4635
(lp4636
I518284
aI591
asS'1306'
p4637
(lp4638
I518875
aI952
asS'1307'
p4639
(lp4640
I519827
aI1412
asS'1300'
p4641
(lp4642
I516119
aI164
asS'1301'
p4643
(lp4644
I516283
aI152
asS'1302'
p4645
(lp4646
I516435
aI187
asS'1303'
p4647
(lp4648
I516622
aI1300
asS'1497'
p4649
(lp4650
I675380
aI1556
asS'1308'
p4651
(lp4652
I521239
aI1217
asS'1309'
p4653
(lp4654
I522456
aI904
asS'3308'
p4655
(lp4656
I4091304
aI24192
asS'3590'
p4657
(lp4658
I9357710
aI5089
asS'498'
p4659
(lp4660
I161302
aI158
asS'499'
p4661
(lp4662
I161460
aI160
asS'3280'
p4663
(lp4664
I3580811
aI30162
asS'494'
p4665
(lp4666
I158695
aI239
asS'495'
p4667
(lp4668
I158934
aI922
asS'496'
p4669
(lp4670
I159856
aI191
asS'497'
p4671
(lp4672
I160047
aI1255
asS'490'
p4673
(lp4674
I156511
aI172
asS'491'
p4675
(lp4676
I156683
aI783
asS'492'
p4677
(lp4678
I157466
aI907
asS'493'
p4679
(lp4680
I158373
aI322
asS'24'
p4681
(lp4682
I5216
aI148
asS'25'
p4683
(lp4684
I5364
aI145
asS'26'
p4685
(lp4686
I5509
aI182
asS'27'
p4687
(lp4688
I5691
aI183
asS'20'
p4689
(lp4690
I4217
aI418
asS'21'
p4691
(lp4692
I4635
aI189
asS'22'
p4693
(lp4694
I4824
aI199
asS'23'
p4695
(lp4696
I5023
aI193
asS'3732'
p4697
(lp4698
I11926919
aI9757
asS'2593'
p4699
(lp4700
I1587196
aI1045
asS'28'
p4701
(lp4702
I5874
aI148
asS'29'
p4703
(lp4704
I6022
aI132
asS'3262'
p4705
(lp4706
I3269705
aI15872
asS'3939'
p4707
(lp4708
I15641944
aI7437
asS'3938'
p4709
(lp4710
I15637979
aI3965
asS'3935'
p4711
(lp4712
I15588576
aI884
asS'3934'
p4713
(lp4714
I15569485
aI19091
asS'3937'
p4715
(lp4716
I15615166
aI22813
asS'3936'
p4717
(lp4718
I15589460
aI25706
asS'3931'
p4719
(lp4720
I15521189
aI2731
asS'3930'
p4721
(lp4722
I15498810
aI22379
asS'3933'
p4723
(lp4724
I15542522
aI26963
asS'2599'
p4725
(lp4726
I1595833
aI334
asS'1703'
p4727
(lp4728
I834398
aI1230
asS'3265'
p4729
(lp4730
I3326154
aI23351
asS'4138'
p4731
(lp4732
I19437430
aI17854
asS'4139'
p4733
(lp4734
I19455284
aI9267
asS'4130'
p4735
(lp4736
I19224229
aI27725
asS'4131'
p4737
(lp4738
I19251954
aI15294
asS'3224'
p4739
(lp4740
I2593800
aI8262
asS'4133'
p4741
(lp4742
I19300892
aI10140
asS'4134'
p4743
(lp4744
I19311032
aI32862
asS'4135'
p4745
(lp4746
I19343894
aI33279
asS'4136'
p4747
(lp4748
I19377173
aI33856
asS'4137'
p4749
(lp4750
I19411029
aI26401
asS'3841'
p4751
(lp4752
I13928956
aI16258
asS'3840'
p4753
(lp4754
I13895312
aI33644
asS'3264'
p4755
(lp4756
I3293970
aI32184
asS'1875'
p4757
(lp4758
I985933
aI846
asS'3845'
p4759
(lp4760
I14011466
aI16545
asS'3844'
p4761
(lp4762
I13985644
aI25822
asS'3847'
p4763
(lp4764
I14043781
aI32260
asS'1709'
p4765
(lp4766
I840760
aI1030
asS'3849'
p4767
(lp4768
I14107310
aI3014
asS'3671'
p4769
(lp4770
I10801171
aI34875
asS'3916'
p4771
(lp4772
I15291381
aI17544
asS'3267'
p4773
(lp4774
I3360312
aI30976
asS'4044'
p4775
(lp4776
I17507804
aI10939
asS'4045'
p4777
(lp4778
I17518743
aI34790
asS'4046'
p4779
(lp4780
I17553533
aI32443
asS'4047'
p4781
(lp4782
I17585976
aI8509
asS'4040'
p4783
(lp4784
I17432699
aI28221
asS'4041'
p4785
(lp4786
I17460920
aI7555
asS'4042'
p4787
(lp4788
I17468475
aI13305
asS'4043'
p4789
(lp4790
I17481780
aI26024
asS'3910'
p4791
(lp4792
I15190300
aI5585
asS'4048'
p4793
(lp4794
I17594485
aI27321
asS'4049'
p4795
(lp4796
I17621806
aI14442
asS'3266'
p4797
(lp4798
I3349505
aI10807
asS'3786'
p4799
(lp4800
I12976252
aI11446
asS'7'
p4801
(lp4802
I1194
aI152
asS'3982'
p4803
(lp4804
I16373576
aI35459
asS'1879'
p4805
(lp4806
I990872
aI2068
asS'2288'
p4807
(lp4808
I1342619
aI984
asS'2289'
p4809
(lp4810
I1343603
aI2061
asS'3667'
p4811
(lp4812
I10737281
aI21628
asS'3666'
p4813
(lp4814
I10712454
aI24827
asS'3661'
p4815
(lp4816
I10586715
aI31318
asS'3660'
p4817
(lp4818
I10571678
aI15037
asS'3663'
p4819
(lp4820
I10652763
aI29483
asS'2050'
p4821
(lp4822
I1129455
aI1061
asS'2280'
p4823
(lp4824
I1337841
aI486
asS'2281'
p4825
(lp4826
I1338327
aI274
asS'2282'
p4827
(lp4828
I1338601
aI347
asS'2283'
p4829
(lp4830
I1338948
aI995
asS'2284'
p4831
(lp4832
I1339943
aI265
asS'2285'
p4833
(lp4834
I1340208
aI594
asS'2286'
p4835
(lp4836
I1340802
aI837
asS'2287'
p4837
(lp4838
I1341639
aI980
asS'3815'
p4839
(lp4840
I13467792
aI4312
asS'972'
p4841
(lp4842
I326906
aI1357
asS'2578'
p4843
(lp4844
I1578355
aI379
asS'2579'
p4845
(lp4846
I1578734
aI963
asS'2576'
p4847
(lp4848
I1577729
aI308
asS'2577'
p4849
(lp4850
I1578037
aI318
asS'2574'
p4851
(lp4852
I1577028
aI329
asS'2056'
p4853
(lp4854
I1136652
aI217
asS'2572'
p4855
(lp4856
I1575130
aI1363
asS'2573'
p4857
(lp4858
I1576493
aI535
asS'2570'
p4859
(lp4860
I1573290
aI931
asS'2571'
p4861
(lp4862
I1574221
aI909
asS'3690'
p4863
(lp4864
I11177546
aI14758
asS'2378'
p4865
(lp4866
I1426727
aI1497
asS'2379'
p4867
(lp4868
I1428224
aI1616
asS'3691'
p4869
(lp4870
I11192304
aI12117
asS'2374'
p4871
(lp4872
I1420255
aI1420
asS'2375'
p4873
(lp4874
I1421675
aI1436
asS'2376'
p4875
(lp4876
I1423111
aI1461
asS'2377'
p4877
(lp4878
I1424572
aI2155
asS'2370'
p4879
(lp4880
I1415721
aI904
asS'2371'
p4881
(lp4882
I1416625
aI628
asS'2372'
p4883
(lp4884
I1417253
aI1164
asS'2373'
p4885
(lp4886
I1418417
aI1838
asS'2594'
p4887
(lp4888
I1588241
aI1247
asS'1087'
p4889
(lp4890
I385234
aI473
asS'2596'
p4891
(lp4892
I1590785
aI1555
asS'2597'
p4893
(lp4894
I1592340
aI1353
asS'2590'
p4895
(lp4896
I1585629
aI186
asS'2591'
p4897
(lp4898
I1585815
aI250
asS'2592'
p4899
(lp4900
I1586065
aI1131
asS'1086'
p4901
(lp4902
I384399
aI835
asS'3599'
p4903
(lp4904
I9503955
aI27090
asS'3598'
p4905
(lp4906
I9476972
aI26983
asS'2598'
p4907
(lp4908
I1593693
aI2140
asS'1085'
p4909
(lp4910
I384188
aI211
asS'3695'
p4911
(lp4912
I11251790
aI25505
asS'1876'
p4913
(lp4914
I986779
aI538
asS'1877'
p4915
(lp4916
I987317
aI1968
asS'1874'
p4917
(lp4918
I984772
aI1161
asS'1084'
p4919
(lp4920
I383048
aI1140
asS'1872'
p4921
(lp4922
I984124
aI242
asS'1873'
p4923
(lp4924
I984366
aI406
asS'1870'
p4925
(lp4926
I982720
aI629
asS'1871'
p4927
(lp4928
I983349
aI775
asS'1083'
p4929
(lp4930
I381785
aI1263
asS'1878'
p4931
(lp4932
I989285
aI1587
asS'1082'
p4933
(lp4934
I381592
aI193
asS'977'
p4935
(lp4936
I329990
aI201
asS'976'
p4937
(lp4938
I329833
aI157
asS'975'
p4939
(lp4940
I329585
aI248
asS'974'
p4941
(lp4942
I329063
aI522
asS'973'
p4943
(lp4944
I328263
aI800
asS'1081'
p4945
(lp4946
I381366
aI226
asS'971'
p4947
(lp4948
I326323
aI583
asS'970'
p4949
(lp4950
I325777
aI546
asS'1080'
p4951
(lp4952
I381192
aI174
asS'979'
p4953
(lp4954
I330349
aI174
asS'978'
p4955
(lp4956
I330191
aI158
asS'182'
p4957
(lp4958
I51245
aI190
asS'183'
p4959
(lp4960
I51435
aI165
asS'180'
p4961
(lp4962
I50870
aI188
asS'181'
p4963
(lp4964
I51058
aI187
asS'186'
p4965
(lp4966
I52794
aI179
asS'187'
p4967
(lp4968
I52973
aI140
asS'184'
p4969
(lp4970
I51600
aI203
asS'185'
p4971
(lp4972
I51803
aI991
asS'2110'
p4973
(lp4974
I1179766
aI1602
asS'2111'
p4975
(lp4976
I1181368
aI1508
asS'188'
p4977
(lp4978
I53113
aI186
asS'189'
p4979
(lp4980
I53299
aI159
asS'2114'
p4981
(lp4982
I1185560
aI958
asS'2115'
p4983
(lp4984
I1186518
aI313
asS'2116'
p4985
(lp4986
I1186831
aI405
asS'1559'
p4987
(lp4988
I719999
aI389
asS'2622'
p4989
(lp4990
I1609621
aI1609
asS'2623'
p4991
(lp4992
I1611230
aI982
asS'2620'
p4993
(lp4994
I1607498
aI1464
asS'2621'
p4995
(lp4996
I1608962
aI659
asS'2626'
p4997
(lp4998
I1615456
aI1322
asS'2627'
p4999
(lp5000
I1616778
aI992
asS'2624'
p5001
(lp5002
I1612212
aI1032
asS'2625'
p5003
(lp5004
I1613244
aI2212
asS'2628'
p5005
(lp5006
I1617770
aI1464
asS'2629'
p5007
(lp5008
I1619234
aI1328
asS'4089'
p5009
(lp5010
I18397491
aI32407
asS'1919'
p5011
(lp5012
I1023093
aI962
asS'1918'
p5013
(lp5014
I1022878
aI215
asS'1464'
p5015
(lp5016
I639679
aI1741
asS'3289'
p5017
(lp5018
I3743852
aI32580
asS'3288'
p5019
(lp5020
I3713095
aI30757
asS'1911'
p5021
(lp5022
I1017638
aI1110
asS'1910'
p5023
(lp5024
I1017006
aI632
asS'1913'
p5025
(lp5026
I1019465
aI342
asS'1912'
p5027
(lp5028
I1018748
aI717
asS'1915'
p5029
(lp5030
I1020109
aI1196
asS'1914'
p5031
(lp5032
I1019807
aI302
asS'1917'
p5033
(lp5034
I1022402
aI476
asS'1916'
p5035
(lp5036
I1021305
aI1097
asS'869'
p5037
(lp5038
I295895
aI154
asS'868'
p5039
(lp5040
I295625
aI270
asS'2113'
p5041
(lp5042
I1183979
aI1581
asS'3449'
p5043
(lp5044
I6494647
aI23061
asS'3448'
p5045
(lp5046
I6458663
aI35984
asS'3141'
p5047
(lp5048
I2131793
aI740
asS'861'
p5049
(lp5050
I290479
aI1103
asS'860'
p5051
(lp5052
I289707
aI772
asS'863'
p5053
(lp5054
I292133
aI431
asS'862'
p5055
(lp5056
I291582
aI551
asS'865'
p5057
(lp5058
I293276
aI1024
asS'864'
p5059
(lp5060
I292564
aI712
asS'867'
p5061
(lp5062
I294632
aI993
asS'866'
p5063
(lp5064
I294300
aI332
asS'2024'
p5065
(lp5066
I1110070
aI230
asS'2025'
p5067
(lp5068
I1110300
aI419
asS'2026'
p5069
(lp5070
I1110719
aI168
asS'2027'
p5071
(lp5072
I1110887
aI297
asS'2020'
p5073
(lp5074
I1107331
aI1645
asS'2021'
p5075
(lp5076
I1108976
aI470
asS'2022'
p5077
(lp5078
I1109446
aI272
asS'2023'
p5079
(lp5080
I1109718
aI352
asS'3144'
p5081
(lp5082
I2135115
aI1180
asS'2117'
p5083
(lp5084
I1187236
aI339
asS'2028'
p5085
(lp5086
I1111184
aI400
asS'2029'
p5087
(lp5088
I1111584
aI259
asS'2758'
p5089
(lp5090
I1737982
aI291
asS'2759'
p5091
(lp5092
I1738273
aI250
asS'883'
p5093
(lp5094
I298687
aI170
asS'882'
p5095
(lp5096
I298538
aI149
asS'881'
p5097
(lp5098
I298349
aI189
asS'880'
p5099
(lp5100
I298166
aI183
asS'887'
p5101
(lp5102
I299429
aI232
asS'886'
p5103
(lp5104
I299273
aI156
asS'885'
p5105
(lp5106
I299070
aI203
asS'884'
p5107
(lp5108
I298857
aI213
asS'889'
p5109
(lp5110
I299876
aI170
asS'888'
p5111
(lp5112
I299661
aI215
asS'3148'
p5113
(lp5114
I2139560
aI1176
asS'3149'
p5115
(lp5116
I2140736
aI776
asS'4014'
p5117
(lp5118
I17024815
aI30259
asS'3970'
p5119
(lp5120
I16145463
aI2880
asS'3729'
p5121
(lp5122
I11862956
aI14988
asS'3988'
p5123
(lp5124
I16536033
aI34687
asS'3973'
p5125
(lp5126
I16204605
aI8887
asS'775'
p5127
(lp5128
I259840
aI185
asS'774'
p5129
(lp5130
I259606
aI234
asS'777'
p5131
(lp5132
I260354
aI154
asS'776'
p5133
(lp5134
I260025
aI329
asS'771'
p5135
(lp5136
I259043
aI176
asS'770'
p5137
(lp5138
I258879
aI164
asS'773'
p5139
(lp5140
I259378
aI228
asS'772'
p5141
(lp5142
I259219
aI159
asS'779'
p5143
(lp5144
I260742
aI161
asS'778'
p5145
(lp5146
I260508
aI234
asS'77'
p5147
(lp5148
I20402
aI403
asS'76'
p5149
(lp5150
I20221
aI181
asS'75'
p5151
(lp5152
I20030
aI191
asS'74'
p5153
(lp5154
I19745
aI285
asS'73'
p5155
(lp5156
I19602
aI143
asS'72'
p5157
(lp5158
I19447
aI155
asS'71'
p5159
(lp5160
I18305
aI1142
asS'70'
p5161
(lp5162
I17935
aI370
asS'2972'
p5163
(lp5164
I1945467
aI1413
asS'2973'
p5165
(lp5166
I1946880
aI748
asS'2970'
p5167
(lp5168
I1942883
aI1232
asS'2971'
p5169
(lp5170
I1944115
aI1352
asS'2976'
p5171
(lp5172
I1948349
aI391
asS'2977'
p5173
(lp5174
I1948740
aI881
asS'79'
p5175
(lp5176
I21720
aI202
asS'78'
p5177
(lp5178
I20805
aI915
asS'1043'
p5179
(lp5180
I363593
aI553
asS'1042'
p5181
(lp5182
I363406
aI187
asS'1041'
p5183
(lp5184
I363239
aI167
asS'1040'
p5185
(lp5186
I362792
aI447
asS'1047'
p5187
(lp5188
I366879
aI566
asS'1046'
p5189
(lp5190
I365066
aI1813
asS'1045'
p5191
(lp5192
I364573
aI493
asS'1044'
p5193
(lp5194
I364146
aI427
asS'1049'
p5195
(lp5196
I368103
aI765
asS'1048'
p5197
(lp5198
I367445
aI658
asS'1681'
p5199
(lp5200
I813383
aI1459
asS'1680'
p5201
(lp5202
I811725
aI1658
asS'1683'
p5203
(lp5204
I815802
aI1322
asS'1682'
p5205
(lp5206
I814842
aI960
asS'1685'
p5207
(lp5208
I818651
aI838
asS'1684'
p5209
(lp5210
I817124
aI1527
asS'1687'
p5211
(lp5212
I820360
aI276
asS'1686'
p5213
(lp5214
I819489
aI871
asS'1689'
p5215
(lp5216
I820904
aI320
asS'1688'
p5217
(lp5218
I820636
aI268
asS'3983'
p5219
(lp5220
I16409035
aI18282
asS'3025'
p5221
(lp5222
I2001164
aI1183
asS'1269'
p5223
(lp5224
I500515
aI175
asS'1268'
p5225
(lp5226
I500304
aI211
asS'3341'
p5227
(lp5228
I4576613
aI3260
asS'669'
p5229
(lp5230
I214252
aI1217
asS'668'
p5231
(lp5232
I214087
aI165
asS'667'
p5233
(lp5234
I213933
aI154
asS'1262'
p5235
(lp5236
I492502
aI738
asS'665'
p5237
(lp5238
I213573
aI152
asS'664'
p5239
(lp5240
I213425
aI148
asS'1267'
p5241
(lp5242
I499456
aI848
asS'1266'
p5243
(lp5244
I499250
aI206
asS'1265'
p5245
(lp5246
I495690
aI3560
asS'1264'
p5247
(lp5248
I494472
aI1218
asS'3287'
p5249
(lp5250
I3687621
aI25474
asS'3021'
p5251
(lp5252
I1996359
aI1794
asS'3286'
p5253
(lp5254
I3660120
aI27501
asS'3095'
p5255
(lp5256
I2082274
aI813
asS'3020'
p5257
(lp5258
I1995305
aI1054
asS'3285'
p5259
(lp5260
I3633834
aI26286
asS'3128'
p5261
(lp5262
I2117136
aI1696
asS'3129'
p5263
(lp5264
I2118832
aI875
asS'3122'
p5265
(lp5266
I2112659
aI386
asS'3123'
p5267
(lp5268
I2113045
aI426
asS'3120'
p5269
(lp5270
I2110328
aI1063
asS'3121'
p5271
(lp5272
I2111391
aI1268
asS'3126'
p5273
(lp5274
I2115607
aI485
asS'3127'
p5275
(lp5276
I2116092
aI1044
asS'3124'
p5277
(lp5278
I2113471
aI971
asS'3125'
p5279
(lp5280
I2114442
aI1165
asS'1469'
p5281
(lp5282
I645581
aI1525
asS'1468'
p5283
(lp5284
I643650
aI1931
asS'3977'
p5285
(lp5286
I16252821
aI17157
asS'1465'
p5287
(lp5288
I641420
aI691
asS'1018'
p5289
(lp5290
I350447
aI153
asS'1467'
p5291
(lp5292
I642321
aI1329
asS'1466'
p5293
(lp5294
I642111
aI210
asS'1461'
p5295
(lp5296
I636559
aI149
asS'1460'
p5297
(lp5298
I635307
aI1252
asS'1463'
p5299
(lp5300
I638310
aI1369
asS'1019'
p5301
(lp5302
I350600
aI164
asS'1317'
p5303
(lp5304
I526350
aI179
asS'1316'
p5305
(lp5306
I526106
aI244
asS'1315'
p5307
(lp5308
I524791
aI1315
asS'1314'
p5309
(lp5310
I524201
aI590
asS'1313'
p5311
(lp5312
I523949
aI252
asS'1312'
p5313
(lp5314
I523727
aI222
asS'1311'
p5315
(lp5316
I523570
aI157
asS'1310'
p5317
(lp5318
I523360
aI210
asS'3276'
p5319
(lp5320
I3503092
aI14894
asS'1319'
p5321
(lp5322
I526691
aI261
asS'1318'
p5323
(lp5324
I526529
aI162
asS'3976'
p5325
(lp5326
I16251669
aI1152
asS'2460'
p5327
(lp5328
I1486159
aI173
asS'1010'
p5329
(lp5330
I345242
aI741
asS'1011'
p5331
(lp5332
I345983
aI179
asS'3445'
p5333
(lp5334
I6424118
aI3306
asS'3035'
p5335
(lp5336
I2011999
aI1140
asS'3444'
p5337
(lp5338
I6387872
aI36246
asS'3447'
p5339
(lp5340
I6437967
aI20696
asS'3948'
p5341
(lp5342
I15760626
aI18952
asS'3949'
p5343
(lp5344
I15779578
aI24823
asS'319'
p5345
(lp5346
I99111
aI775
asS'318'
p5347
(lp5348
I98938
aI173
asS'3403'
p5349
(lp5350
I5654820
aI11255
asS'313'
p5351
(lp5352
I97347
aI172
asS'312'
p5353
(lp5354
I97193
aI154
asS'311'
p5355
(lp5356
I96893
aI300
asS'310'
p5357
(lp5358
I96656
aI237
asS'317'
p5359
(lp5360
I98696
aI242
asS'316'
p5361
(lp5362
I97853
aI843
asS'315'
p5363
(lp5364
I97699
aI154
asS'314'
p5365
(lp5366
I97519
aI180
asS'3491'
p5367
(lp5368
I7269055
aI25035
asS'3443'
p5369
(lp5370
I6354047
aI33825
asS'3442'
p5371
(lp5372
I6328380
aI25667
asS'2756'
p5373
(lp5374
I1737326
aI359
asS'3402'
p5375
(lp5376
I5628374
aI26446
asS'4128'
p5377
(lp5378
I19170821
aI25360
asS'4198'
p5379
(lp5380
I20561024
aI26919
asS'2757'
p5381
(lp5382
I1737685
aI297
asS'4123'
p5383
(lp5384
I19078185
aI34660
asS'4122'
p5385
(lp5386
I19048381
aI29804
asS'4121'
p5387
(lp5388
I19020386
aI27995
asS'4120'
p5389
(lp5390
I18994495
aI25891
asS'4127'
p5391
(lp5392
I19156453
aI14368
asS'2754'
p5393
(lp5394
I1736344
aI806
asS'4125'
p5395
(lp5396
I19124694
aI28984
asS'4124'
p5397
(lp5398
I19112845
aI11849
asS'1335'
p5399
(lp5400
I539122
aI189
asS'2755'
p5401
(lp5402
I1737150
aI176
asS'3722'
p5403
(lp5404
I11731957
aI13588
asS'1334'
p5405
(lp5406
I537900
aI1222
asS'2752'
p5407
(lp5408
I1734220
aI255
asS'1337'
p5409
(lp5410
I539868
aI232
asS'3658'
p5411
(lp5412
I10552277
aI14089
asS'2753'
p5413
(lp5414
I1734475
aI1869
asS'3405'
p5415
(lp5416
I5667905
aI8125
asS'1336'
p5417
(lp5418
I539311
aI557
asS'2750'
p5419
(lp5420
I1731731
aI1288
asS'2322'
p5421
(lp5422
I1374489
aI607
asS'1331'
p5423
(lp5424
I536147
aI795
asS'2698'
p5425
(lp5426
I1673098
aI1944
asS'1330'
p5427
(lp5428
I535896
aI251
asS'3201'
p5429
(lp5430
I2186495
aI1054
asS'1333'
p5431
(lp5432
I537267
aI633
asS'1332'
p5433
(lp5434
I536942
aI325
asS'3404'
p5435
(lp5436
I5666075
aI1830
asS'3273'
p5437
(lp5438
I3453367
aI12898
asS'4056'
p5439
(lp5440
I17729672
aI21112
asS'4055'
p5441
(lp5442
I17719026
aI10646
asS'2694'
p5443
(lp5444
I1669316
aI265
asS'4053'
p5445
(lp5446
I17675454
aI30437
asS'4052'
p5447
(lp5448
I17671930
aI3524
asS'4051'
p5449
(lp5450
I17643430
aI28500
asS'4050'
p5451
(lp5452
I17636248
aI7182
asS'2324'
p5453
(lp5454
I1376100
aI965
asS'2908'
p5455
(lp5456
I1878473
aI375
asS'4059'
p5457
(lp5458
I17782425
aI29122
asS'2692'
p5459
(lp5460
I1666696
aI2120
asS'630'
p5461
(lp5462
I200939
aI571
asS'3843'
p5463
(lp5464
I13949566
aI36078
asS'3407'
p5465
(lp5466
I5685680
aI30294
asS'2461'
p5467
(lp5468
I1486332
aI163
asS'3610'
p5469
(lp5470
I9710127
aI17210
asS'3611'
p5471
(lp5472
I9727337
aI21479
asS'2299'
p5473
(lp5474
I1350461
aI1092
asS'2298'
p5475
(lp5476
I1349476
aI985
asS'2969'
p5477
(lp5478
I1942101
aI782
asS'3615'
p5479
(lp5480
I9800025
aI3925
asS'3616'
p5481
(lp5482
I9803950
aI25533
asS'3617'
p5483
(lp5484
I9829483
aI910
asS'2293'
p5485
(lp5486
I1346717
aI250
asS'2292'
p5487
(lp5488
I1346411
aI306
asS'2291'
p5489
(lp5490
I1346130
aI281
asS'2290'
p5491
(lp5492
I1345664
aI466
asS'2297'
p5493
(lp5494
I1347966
aI1510
asS'2296'
p5495
(lp5496
I1347698
aI268
asS'631'
p5497
(lp5498
I201510
aI1108
asS'2294'
p5499
(lp5500
I1346967
aI376
asS'3842'
p5501
(lp5502
I13945214
aI4352
asS'3406'
p5503
(lp5504
I5676030
aI9650
asS'2569'
p5505
(lp5506
I1571840
aI1450
asS'2568'
p5507
(lp5508
I1570469
aI1371
asS'2561'
p5509
(lp5510
I1567010
aI1046
asS'2560'
p5511
(lp5512
I1566229
aI781
asS'2563'
p5513
(lp5514
I1568217
aI179
asS'2562'
p5515
(lp5516
I1568056
aI161
asS'2565'
p5517
(lp5518
I1568576
aI347
asS'2564'
p5519
(lp5520
I1568396
aI180
asS'2567'
p5521
(lp5522
I1569234
aI1235
asS'2566'
p5523
(lp5524
I1568923
aI311
asS'1521'
p5525
(lp5526
I690894
aI383
asS'2369'
p5527
(lp5528
I1414692
aI1029
asS'2368'
p5529
(lp5530
I1413761
aI931
asS'2367'
p5531
(lp5532
I1412633
aI1128
asS'2366'
p5533
(lp5534
I1411680
aI953
asS'2365'
p5535
(lp5536
I1410753
aI927
asS'2364'
p5537
(lp5538
I1410309
aI444
asS'2363'
p5539
(lp5540
I1410037
aI272
asS'2362'
p5541
(lp5542
I1409666
aI371
asS'2361'
p5543
(lp5544
I1409318
aI348
asS'2360'
p5545
(lp5546
I1408776
aI542
asS'2587'
p5547
(lp5548
I1584911
aI255
asS'2586'
p5549
(lp5550
I1584645
aI266
asS'2585'
p5551
(lp5552
I1584408
aI237
asS'2584'
p5553
(lp5554
I1583725
aI683
asS'2583'
p5555
(lp5556
I1583318
aI407
asS'2582'
p5557
(lp5558
I1581710
aI1608
asS'2581'
p5559
(lp5560
I1580843
aI867
asS'2580'
p5561
(lp5562
I1579697
aI1146
asS'4080'
p5563
(lp5564
I18192229
aI34964
asS'2589'
p5565
(lp5566
I1585392
aI237
asS'2588'
p5567
(lp5568
I1585166
aI226
asS'1861'
p5569
(lp5570
I976067
aI1007
asS'1860'
p5571
(lp5572
I973825
aI2242
asS'1863'
p5573
(lp5574
I978743
aI270
asS'1862'
p5575
(lp5576
I977074
aI1669
asS'1865'
p5577
(lp5578
I979244
aI212
asS'1864'
p5579
(lp5580
I979013
aI231
asS'1867'
p5581
(lp5582
I979809
aI753
asS'1866'
p5583
(lp5584
I979456
aI353
asS'1869'
p5585
(lp5586
I981439
aI1281
asS'1868'
p5587
(lp5588
I980562
aI877
asS'3726'
p5589
(lp5590
I11814442
aI24832
asS'3727'
p5591
(lp5592
I11839274
aI4642
asS'3720'
p5593
(lp5594
I11682381
aI29356
asS'3721'
p5595
(lp5596
I11711737
aI20220
asS'3207'
p5597
(lp5598
I2241387
aI23234
asS'3723'
p5599
(lp5600
I11745545
aI15754
asS'964'
p5601
(lp5602
I323431
aI1361
asS'965'
p5603
(lp5604
I324792
aI165
asS'966'
p5605
(lp5606
I324957
aI183
asS'967'
p5607
(lp5608
I325140
aI234
asS'960'
p5609
(lp5610
I321527
aI156
asS'961'
p5611
(lp5612
I321683
aI374
asS'962'
p5613
(lp5614
I322057
aI812
asS'963'
p5615
(lp5616
I322869
aI562
asS'968'
p5617
(lp5618
I325374
aI198
asS'969'
p5619
(lp5620
I325572
aI205
asS'2109'
p5621
(lp5622
I1177850
aI1916
asS'2108'
p5623
(lp5624
I1177361
aI489
asS'2103'
p5625
(lp5626
I1172482
aI288
asS'2102'
p5627
(lp5628
I1172226
aI256
asS'2101'
p5629
(lp5630
I1171962
aI264
asS'2100'
p5631
(lp5632
I1171749
aI213
asS'2107'
p5633
(lp5634
I1175597
aI1764
asS'2106'
p5635
(lp5636
I1174085
aI1512
asS'2105'
p5637
(lp5638
I1173114
aI971
asS'2104'
p5639
(lp5640
I1172770
aI344
asS'2639'
p5641
(lp5642
I1626727
aI177
asS'2638'
p5643
(lp5644
I1626555
aI172
asS'2635'
p5645
(lp5646
I1625992
aI195
asS'2634'
p5647
(lp5648
I1625223
aI769
asS'2637'
p5649
(lp5650
I1626379
aI176
asS'2636'
p5651
(lp5652
I1626187
aI192
asS'2631'
p5653
(lp5654
I1621185
aI1311
asS'2630'
p5655
(lp5656
I1620562
aI623
asS'2633'
p5657
(lp5658
I1624544
aI679
asS'2632'
p5659
(lp5660
I1622496
aI2048
asS'3527'
p5661
(lp5662
I8037368
aI26386
asS'1560'
p5663
(lp5664
I720388
aI196
asS'3438'
p5665
(lp5666
I6275882
aI25192
asS'1241'
p5667
(lp5668
I482849
aI430
asS'878'
p5669
(lp5670
I297640
aI286
asS'1240'
p5671
(lp5672
I482698
aI151
asS'876'
p5673
(lp5674
I297289
aI165
asS'877'
p5675
(lp5676
I297454
aI186
asS'874'
p5677
(lp5678
I296965
aI153
asS'875'
p5679
(lp5680
I297118
aI171
asS'872'
p5681
(lp5682
I296380
aI438
asS'1243'
p5683
(lp5684
I483494
aI219
asS'870'
p5685
(lp5686
I296049
aI163
asS'871'
p5687
(lp5688
I296212
aI168
asS'2037'
p5689
(lp5690
I1121031
aI243
asS'2036'
p5691
(lp5692
I1119963
aI1068
asS'2035'
p5693
(lp5694
I1118190
aI1773
asS'1242'
p5695
(lp5696
I483279
aI215
asS'2033'
p5697
(lp5698
I1114936
aI2296
asS'2032'
p5699
(lp5700
I1113974
aI962
asS'2031'
p5701
(lp5702
I1112957
aI1017
asS'2030'
p5703
(lp5704
I1111843
aI1114
asS'9'
p5705
(lp5706
I1513
aI130
asS'1245'
p5707
(lp5708
I483875
aI145
asS'3483'
p5709
(lp5710
I7146092
aI829
asS'2039'
p5711
(lp5712
I1121513
aI267
asS'1244'
p5713
(lp5714
I483713
aI162
asS'890'
p5715
(lp5716
I300046
aI347
asS'891'
p5717
(lp5718
I300393
aI782
asS'892'
p5719
(lp5720
I301175
aI701
asS'893'
p5721
(lp5722
I301876
aI737
asS'894'
p5723
(lp5724
I302613
aI715
asS'1247'
p5725
(lp5726
I484174
aI862
asS'896'
p5727
(lp5728
I303623
aI179
asS'897'
p5729
(lp5730
I303802
aI201
asS'898'
p5731
(lp5732
I304003
aI145
asS'899'
p5733
(lp5734
I304148
aI157
asS'646'
p5735
(lp5736
I208908
aI185
asS'3651'
p5737
(lp5738
I10408002
aI3463
asS'3484'
p5739
(lp5740
I7146921
aI26326
asS'1249'
p5741
(lp5742
I485630
aI222
asS'648'
p5743
(lp5744
I209275
aI153
asS'3236'
p5745
(lp5746
I2787518
aI22289
asS'3237'
p5747
(lp5748
I2809807
aI29914
asS'3544'
p5749
(lp5750
I8362805
aI8105
asS'3545'
p5751
(lp5752
I8370910
aI23889
asS'3546'
p5753
(lp5754
I8394799
aI19209
asS'3099'
p5755
(lp5756
I2086858
aI1004
asS'3540'
p5757
(lp5758
I8283717
aI15648
asS'3234'
p5759
(lp5760
I2759441
aI22577
asS'3542'
p5761
(lp5762
I8321337
aI16584
asS'3011'
p5763
(lp5764
I1985638
aI1463
asS'3235'
p5765
(lp5766
I2782018
aI5500
asS'3548'
p5767
(lp5768
I8444134
aI32533
asS'1537'
p5769
(lp5770
I704476
aI302
asS'1964'
p5771
(lp5772
I1066499
aI260
asS'1965'
p5773
(lp5774
I1066759
aI379
asS'1966'
p5775
(lp5776
I1067138
aI260
asS'1788'
p5777
(lp5778
I916981
aI2039
asS'1789'
p5779
(lp5780
I919020
aI181
asS'768'
p5781
(lp5782
I258477
aI247
asS'769'
p5783
(lp5784
I258724
aI155
asS'2961'
p5785
(lp5786
I1935268
aI830
asS'2960'
p5787
(lp5788
I1935034
aI234
asS'2963'
p5789
(lp5790
I1936931
aI890
asS'2962'
p5791
(lp5792
I1936098
aI833
asS'762'
p5793
(lp5794
I254700
aI735
asS'763'
p5795
(lp5796
I255435
aI2225
asS'760'
p5797
(lp5798
I253173
aI139
asS'761'
p5799
(lp5800
I253312
aI1388
asS'766'
p5801
(lp5802
I258038
aI156
asS'767'
p5803
(lp5804
I258194
aI283
asS'764'
p5805
(lp5806
I257660
aI191
asS'765'
p5807
(lp5808
I257851
aI187
asS'3049'
p5809
(lp5810
I2027324
aI1644
asS'3048'
p5811
(lp5812
I2025942
aI1382
asS'1962'
p5813
(lp5814
I1064906
aI1282
asS'3041'
p5815
(lp5816
I2017898
aI1476
asS'3040'
p5817
(lp5818
I2016973
aI925
asS'3043'
p5819
(lp5820
I2020482
aI1190
asS'1963'
p5821
(lp5822
I1066188
aI311
asS'3045'
p5823
(lp5824
I2022294
aI1208
asS'3044'
p5825
(lp5826
I2021672
aI622
asS'3047'
p5827
(lp5828
I2024525
aI1417
asS'3046'
p5829
(lp5830
I2023502
aI1023
asS'1078'
p5831
(lp5832
I380834
aI187
asS'1079'
p5833
(lp5834
I381021
aI171
asS'1076'
p5835
(lp5836
I380521
aI158
asS'1077'
p5837
(lp5838
I380679
aI155
asS'1074'
p5839
(lp5840
I380219
aI148
asS'1075'
p5841
(lp5842
I380367
aI154
asS'1072'
p5843
(lp5844
I379003
aI782
asS'1073'
p5845
(lp5846
I379785
aI434
asS'1070'
p5847
(lp5848
I378168
aI186
asS'1071'
p5849
(lp5850
I378354
aI649
asS'1678'
p5851
(lp5852
I809500
aI918
asS'1561'
p5853
(lp5854
I720584
aI244
asS'3030'
p5855
(lp5856
I2005694
aI1256
asS'1674'
p5857
(lp5858
I805148
aI1154
asS'1675'
p5859
(lp5860
I806302
aI487
asS'1676'
p5861
(lp5862
I806789
aI1388
asS'1677'
p5863
(lp5864
I808177
aI1323
asS'1670'
p5865
(lp5866
I802026
aI469
asS'1671'
p5867
(lp5868
I802495
aI1408
asS'1672'
p5869
(lp5870
I803903
aI676
asS'1673'
p5871
(lp5872
I804579
aI569
asS'1094'
p5873
(lp5874
I387712
aI153
asS'1095'
p5875
(lp5876
I387865
aI164
asS'1096'
p5877
(lp5878
I388029
aI209
asS'1097'
p5879
(lp5880
I388238
aI295
asS'1090'
p5881
(lp5882
I386666
aI175
asS'1091'
p5883
(lp5884
I386841
aI199
asS'1092'
p5885
(lp5886
I387040
aI396
asS'1093'
p5887
(lp5888
I387436
aI276
asS'674'
p5889
(lp5890
I218275
aI246
asS'675'
p5891
(lp5892
I218521
aI1361
asS'676'
p5893
(lp5894
I219882
aI186
asS'677'
p5895
(lp5896
I220068
aI850
asS'1098'
p5897
(lp5898
I388533
aI2107
asS'1099'
p5899
(lp5900
I390640
aI1454
asS'672'
p5901
(lp5902
I217927
aI182
asS'673'
p5903
(lp5904
I218109
aI166
asS'3135'
p5905
(lp5906
I2125700
aI1265
asS'3134'
p5907
(lp5908
I2124173
aI1527
asS'3137'
p5909
(lp5910
I2127903
aI757
asS'3136'
p5911
(lp5912
I2126965
aI938
asS'3131'
p5913
(lp5914
I2121045
aI1010
asS'3130'
p5915
(lp5916
I2119707
aI1338
asS'3133'
p5917
(lp5918
I2123289
aI884
asS'3132'
p5919
(lp5920
I2122055
aI1234
asS'3139'
p5921
(lp5922
I2130077
aI806
asS'3138'
p5923
(lp5924
I2128660
aI1417
asS'3015'
p5925
(lp5926
I1990498
aI1725
asS'1997'
p5927
(lp5928
I1087655
aI1714
asS'1533'
p5929
(lp5930
I700452
aI766
asS'1418'
p5931
(lp5932
I607363
aI415
asS'1419'
p5933
(lp5934
I607778
aI248
asS'2490'
p5935
(lp5936
I1506624
aI795
asS'1410'
p5937
(lp5938
I600162
aI1138
asS'1411'
p5939
(lp5940
I601300
aI1153
asS'1412'
p5941
(lp5942
I602453
aI1319
asS'1413'
p5943
(lp5944
I603772
aI876
asS'1414'
p5945
(lp5946
I604648
aI195
asS'1415'
p5947
(lp5948
I604843
aI1285
asS'1416'
p5949
(lp5950
I606128
aI552
asS'1417'
p5951
(lp5952
I606680
aI683
asS'1322'
p5953
(lp5954
I527339
aI182
asS'1323'
p5955
(lp5956
I527521
aI2765
asS'1320'
p5957
(lp5958
I526952
aI173
asS'1321'
p5959
(lp5960
I527125
aI214
asS'1326'
p5961
(lp5962
I532743
aI946
asS'1327'
p5963
(lp5964
I533689
aI1462
asS'1324'
p5965
(lp5966
I530286
aI1394
asS'1325'
p5967
(lp5968
I531680
aI1063
asS'1328'
p5969
(lp5970
I535151
aI373
asS'1329'
p5971
(lp5972
I535524
aI372
asS'2494'
p5973
(lp5974
I1509553
aI1101
asS'4202'
p5975
(lp5976
I20654876
aI6758
asS'4203'
p5977
(lp5978
I20661634
aI13772
asS'4200'
p5979
(lp5980
I20600616
aI22447
asS'5'
p5981
(lp5982
I886
aI139
asS'4204'
p5983
(lp5984
I20675406
aI29912
asS'1531'
p5985
(lp5986
I699121
aI1158
asS'2874'
p5987
(lp5988
I1840247
aI881
asS'3618'
p5989
(lp5990
I9830393
aI7380
asS'1256'
p5991
(lp5992
I488832
aI151
asS'1257'
p5993
(lp5994
I488983
aI737
asS'1254'
p5995
(lp5996
I487842
aI369
asS'1255'
p5997
(lp5998
I488211
aI621
asS'1252'
p5999
(lp6000
I486411
aI709
asS'1253'
p6001
(lp6002
I487120
aI722
asS'1250'
p6003
(lp6004
I485852
aI187
asS'1251'
p6005
(lp6006
I486039
aI372
asS'1528'
p6007
(lp6008
I697161
aI697
asS'1529'
p6009
(lp6010
I697858
aI554
asS'1258'
p6011
(lp6012
I489720
aI770
asS'1259'
p6013
(lp6014
I490490
aI562
asS'308'
p6015
(lp6016
I95342
aI717
asS'309'
p6017
(lp6018
I96059
aI597
asS'3959'
p6019
(lp6020
I15982818
aI1136
asS'3958'
p6021
(lp6022
I15979742
aI3076
asS'300'
p6023
(lp6024
I93221
aI435
asS'301'
p6025
(lp6026
I93656
aI161
asS'302'
p6027
(lp6028
I93817
aI148
asS'303'
p6029
(lp6030
I93965
aI587
asS'304'
p6031
(lp6032
I94552
aI169
asS'305'
p6033
(lp6034
I94721
aI138
asS'306'
p6035
(lp6036
I94859
aI139
asS'307'
p6037
(lp6038
I94998
aI344
asS'4116'
p6039
(lp6040
I18915627
aI28032
asS'4117'
p6041
(lp6042
I18943659
aI1996
asS'4114'
p6043
(lp6044
I18878082
aI5404
asS'4115'
p6045
(lp6046
I18883486
aI32141
asS'4112'
p6047
(lp6048
I18823694
aI34919
asS'4113'
p6049
(lp6050
I18858613
aI19469
asS'4110'
p6051
(lp6052
I18782566
aI24856
asS'4111'
p6053
(lp6054
I18807422
aI16272
asS'1792'
p6055
(lp6056
I919736
aI1685
asS'4118'
p6057
(lp6058
I18945655
aI15013
asS'4119'
p6059
(lp6060
I18960668
aI33827
asS'2254'
p6061
(lp6062
I1316792
aI1233
asS'2858'
p6063
(lp6064
I1822252
aI1007
asS'2575'
p6065
(lp6066
I1577357
aI372
asS'2978'
p6067
(lp6068
I1949621
aI1272
asS'2979'
p6069
(lp6070
I1950893
aI1513
asS'3340'
p6071
(lp6072
I4547056
aI29557
asS'3058'
p6073
(lp6074
I2038167
aI755
asS'3059'
p6075
(lp6076
I2038922
aI1087
asS'2475'
p6077
(lp6078
I1493416
aI254
asS'3415'
p6079
(lp6080
I5842743
aI36330
asS'3056'
p6081
(lp6082
I2036014
aI788
asS'2474'
p6083
(lp6084
I1493065
aI351
asS'3057'
p6085
(lp6086
I2036802
aI1365
asS'3054'
p6087
(lp6088
I2033681
aI1533
asS'3700'
p6089
(lp6090
I11362882
aI14100
asS'3204'
p6091
(lp6092
I2189883
aI1055
asS'4063'
p6093
(lp6094
I17833435
aI12299
asS'4060'
p6095
(lp6096
I17811547
aI10890
asS'3055'
p6097
(lp6098
I2035214
aI800
asS'3528'
p6099
(lp6100
I8063754
aI27085
asS'4067'
p6101
(lp6102
I17910204
aI25355
asS'4064'
p6103
(lp6104
I17845734
aI7468
asS'4065'
p6105
(lp6106
I17853202
aI26883
asS'3052'
p6107
(lp6108
I2030339
aI1455
asS'4068'
p6109
(lp6110
I17935559
aI24387
asS'4069'
p6111
(lp6112
I17959946
aI33732
asS'3412'
p6113
(lp6114
I5793262
aI5369
asS'3053'
p6115
(lp6116
I2031794
aI1887
asS'2974'
p6117
(lp6118
I1947628
aI444
asS'2975'
p6119
(lp6120
I1948072
aI277
asS'3603'
p6121
(lp6122
I9580919
aI33753
asS'3602'
p6123
(lp6124
I9567899
aI13020
asS'3601'
p6125
(lp6126
I9546626
aI21273
asS'3600'
p6127
(lp6128
I9531045
aI15581
asS'3607'
p6129
(lp6130
I9649249
aI14657
asS'3606'
p6131
(lp6132
I9621562
aI27687
asS'3605'
p6133
(lp6134
I9617190
aI4372
asS'3604'
p6135
(lp6136
I9614672
aI2518
asS'3609'
p6137
(lp6138
I9676299
aI33828
asS'3608'
p6139
(lp6140
I9663906
aI12393
asS'3413'
p6141
(lp6142
I5798631
aI10442
asS'2479'
p6143
(lp6144
I1495124
aI1395
asS'2478'
p6145
(lp6146
I1494416
aI708
asS'470'
p6147
(lp6148
I150764
aI162
asS'2950'
p6149
(lp6150
I1924350
aI1109
asS'2990'
p6151
(lp6152
I1963240
aI1357
asS'2358'
p6153
(lp6154
I1405017
aI2198
asS'2359'
p6155
(lp6156
I1407215
aI1561
asS'2352'
p6157
(lp6158
I1397971
aI289
asS'2353'
p6159
(lp6160
I1398260
aI689
asS'2350'
p6161
(lp6162
I1397217
aI548
asS'2351'
p6163
(lp6164
I1397765
aI206
asS'2356'
p6165
(lp6166
I1402196
aI1692
asS'2357'
p6167
(lp6168
I1403888
aI1129
asS'2354'
p6169
(lp6170
I1398949
aI1834
asS'471'
p6171
(lp6172
I150926
aI143
asS'2991'
p6173
(lp6174
I1964597
aI1739
asS'3398'
p6175
(lp6176
I5557648
aI13576
asS'1898'
p6177
(lp6178
I1006731
aI263
asS'1899'
p6179
(lp6180
I1006994
aI321
asS'3739'
p6181
(lp6182
I12029912
aI5276
asS'3738'
p6183
(lp6184
I11998686
aI31226
asS'1894'
p6185
(lp6186
I1005481
aI483
asS'1895'
p6187
(lp6188
I1005964
aI283
asS'1896'
p6189
(lp6190
I1006247
aI261
asS'1443'
p6191
(lp6192
I624100
aI619
asS'1890'
p6193
(lp6194
I1000879
aI1183
asS'476'
p6195
(lp6196
I151843
aI162
asS'1892'
p6197
(lp6198
I1003216
aI1853
asS'1893'
p6199
(lp6200
I1005069
aI412
asS'959'
p6201
(lp6202
I321357
aI170
asS'958'
p6203
(lp6204
I321207
aI150
asS'2134'
p6205
(lp6206
I1198091
aI810
asS'2135'
p6207
(lp6208
I1198901
aI723
asS'2132'
p6209
(lp6210
I1197369
aI336
asS'2133'
p6211
(lp6212
I1197705
aI386
asS'2130'
p6213
(lp6214
I1195871
aI1191
asS'2131'
p6215
(lp6216
I1197062
aI307
asS'951'
p6217
(lp6218
I319668
aI502
asS'950'
p6219
(lp6220
I318834
aI834
asS'953'
p6221
(lp6222
I320326
aI190
asS'952'
p6223
(lp6224
I320170
aI156
asS'955'
p6225
(lp6226
I320717
aI170
asS'954'
p6227
(lp6228
I320516
aI201
asS'957'
p6229
(lp6230
I321039
aI168
asS'956'
p6231
(lp6232
I320887
aI152
asS'1442'
p6233
(lp6234
I623893
aI207
asS'3971'
p6235
(lp6236
I16148343
aI25929
asS'477'
p6237
(lp6238
I152005
aI182
asS'2648'
p6239
(lp6240
I1632841
aI734
asS'2649'
p6241
(lp6242
I1633575
aI631
asS'2640'
p6243
(lp6244
I1626904
aI219
asS'2641'
p6245
(lp6246
I1627123
aI308
asS'2642'
p6247
(lp6248
I1627431
aI372
asS'2643'
p6249
(lp6250
I1627803
aI610
asS'2644'
p6251
(lp6252
I1628413
aI834
asS'2645'
p6253
(lp6254
I1629247
aI2103
asS'2646'
p6255
(lp6256
I1631350
aI1102
asS'2647'
p6257
(lp6258
I1632452
aI389
asS'3429'
p6259
(lp6260
I6133679
aI11793
asS'3428'
p6261
(lp6262
I6105708
aI27971
asS'3423'
p6263
(lp6264
I6012823
aI19847
asS'3422'
p6265
(lp6266
I5998451
aI14372
asS'3421'
p6267
(lp6268
I5972405
aI26046
asS'3420'
p6269
(lp6270
I5966222
aI6183
asS'3427'
p6271
(lp6272
I6101345
aI4363
asS'3426'
p6273
(lp6274
I6067535
aI33810
asS'3425'
p6275
(lp6276
I6055594
aI11941
asS'3424'
p6277
(lp6278
I6032670
aI22924
asS'2002'
p6279
(lp6280
I1092022
aI2284
asS'2003'
p6281
(lp6282
I1094306
aI1789
asS'2000'
p6283
(lp6284
I1090669
aI943
asS'2001'
p6285
(lp6286
I1091612
aI410
asS'2006'
p6287
(lp6288
I1097666
aI338
asS'1440'
p6289
(lp6290
I622454
aI632
asS'2004'
p6291
(lp6292
I1096095
aI1271
asS'2005'
p6293
(lp6294
I1097366
aI300
asS'3901'
p6295
(lp6296
I15052601
aI24833
asS'3033'
p6297
(lp6298
I2009474
aI1422
asS'2008'
p6299
(lp6300
I1098156
aI329
asS'2009'
p6301
(lp6302
I1098485
aI262
asS'4187'
p6303
(lp6304
I20396651
aI2834
asS'2034'
p6305
(lp6306
I1117232
aI958
asS'1790'
p6307
(lp6308
I919201
aI257
asS'3331'
p6309
(lp6310
I4402769
aI30872
asS'2852'
p6311
(lp6312
I1815905
aI1303
asS'3026'
p6313
(lp6314
I2002347
aI1108
asS'3557'
p6315
(lp6316
I8640430
aI21404
asS'3197'
p6317
(lp6318
I2182782
aI504
asS'3555'
p6319
(lp6320
I8611314
aI9341
asS'3554'
p6321
(lp6322
I8588440
aI22874
asS'3553'
p6323
(lp6324
I8562275
aI26165
asS'3552'
p6325
(lp6326
I8559785
aI2490
asS'3551'
p6327
(lp6328
I8526205
aI33580
asS'3550'
p6329
(lp6330
I8497620
aI28585
asS'3559'
p6331
(lp6332
I8682747
aI10106
asS'3558'
p6333
(lp6334
I8661834
aI20913
asS'1263'
p6335
(lp6336
I493240
aI1232
asS'666'
p6337
(lp6338
I213725
aI208
asS'2176'
p6339
(lp6340
I1237849
aI1345
asS'1261'
p6341
(lp6342
I491632
aI870
asS'2177'
p6343
(lp6344
I1239194
aI1357
asS'2910'
p6345
(lp6346
I1879119
aI366
asS'2911'
p6347
(lp6348
I1879485
aI2139
asS'1799'
p6349
(lp6350
I923322
aI238
asS'1260'
p6351
(lp6352
I491052
aI580
asS'2914'
p6353
(lp6354
I1883762
aI809
asS'2915'
p6355
(lp6356
I1884571
aI882
asS'719'
p6357
(lp6358
I237866
aI716
asS'718'
p6359
(lp6360
I237514
aI352
asS'717'
p6361
(lp6362
I236972
aI542
asS'716'
p6363
(lp6364
I236686
aI286
asS'715'
p6365
(lp6366
I236522
aI164
asS'714'
p6367
(lp6368
I236156
aI366
asS'713'
p6369
(lp6370
I235991
aI165
asS'712'
p6371
(lp6372
I235829
aI162
asS'711'
p6373
(lp6374
I235670
aI159
asS'710'
p6375
(lp6376
I235516
aI154
asS'4177'
p6377
(lp6378
I20187002
aI13875
asS'661'
p6379
(lp6380
I212833
aI290
asS'660'
p6381
(lp6382
I212649
aI184
asS'2178'
p6383
(lp6384
I1240551
aI2144
asS'4078'
p6385
(lp6386
I18163992
aI20198
asS'1069'
p6387
(lp6388
I377881
aI287
asS'1068'
p6389
(lp6390
I377689
aI192
asS'2179'
p6391
(lp6392
I1242695
aI2310
asS'1061'
p6393
(lp6394
I373954
aI161
asS'1060'
p6395
(lp6396
I373796
aI158
asS'1063'
p6397
(lp6398
I375312
aI196
asS'1062'
p6399
(lp6400
I374115
aI1197
asS'1065'
p6401
(lp6402
I375694
aI254
asS'1064'
p6403
(lp6404
I375508
aI186
asS'1067'
p6405
(lp6406
I377221
aI468
asS'1066'
p6407
(lp6408
I375948
aI1273
asS'3023'
p6409
(lp6410
I1999086
aI896
asS'1669'
p6411
(lp6412
I801464
aI562
asS'1668'
p6413
(lp6414
I800917
aI547
asS'1667'
p6415
(lp6416
I800430
aI487
asS'1666'
p6417
(lp6418
I800089
aI341
asS'1665'
p6419
(lp6420
I796939
aI3150
asS'1664'
p6421
(lp6422
I795407
aI1532
asS'1663'
p6423
(lp6424
I795024
aI383
asS'1662'
p6425
(lp6426
I794602
aI422
asS'1661'
p6427
(lp6428
I794356
aI246
asS'1660'
p6429
(lp6430
I794198
aI158
asS'591'
p6431
(lp6432
I186507
aI212
asS'590'
p6433
(lp6434
I186333
aI174
asS'593'
p6435
(lp6436
I186861
aI173
asS'592'
p6437
(lp6438
I186719
aI142
asS'595'
p6439
(lp6440
I187205
aI791
asS'594'
p6441
(lp6442
I187034
aI171
asS'597'
p6443
(lp6444
I188401
aI166
asS'596'
p6445
(lp6446
I187996
aI405
asS'599'
p6447
(lp6448
I188996
aI145
asS'598'
p6449
(lp6450
I188567
aI429
asS'1089'
p6451
(lp6452
I386502
aI164
asS'1088'
p6453
(lp6454
I385707
aI795
asS'3140'
p6455
(lp6456
I2130883
aI910
asS'3022'
p6457
(lp6458
I1998153
aI933
asS'3142'
p6459
(lp6460
I2132533
aI1551
asS'3143'
p6461
(lp6462
I2134084
aI1031
asS'2828'
p6463
(lp6464
I1789283
aI1951
asS'2829'
p6465
(lp6466
I1791234
aI1364
asS'3146'
p6467
(lp6468
I2137321
aI1086
asS'3147'
p6469
(lp6470
I2138407
aI1153
asS'2824'
p6471
(lp6472
I1785947
aI715
asS'2825'
p6473
(lp6474
I1786662
aI409
asS'2826'
p6475
(lp6476
I1787071
aI1036
asS'2827'
p6477
(lp6478
I1788107
aI1176
asS'2820'
p6479
(lp6480
I1781878
aI1593
asS'2821'
p6481
(lp6482
I1783471
aI808
asS'2822'
p6483
(lp6484
I1784279
aI629
asS'2823'
p6485
(lp6486
I1784908
aI1039
asS'3386'
p6487
(lp6488
I5410143
aI29001
asS'3387'
p6489
(lp6490
I5439144
aI8721
asS'3384'
p6491
(lp6492
I5400749
aI5856
asS'3385'
p6493
(lp6494
I5406605
aI3538
asS'3382'
p6495
(lp6496
I5368167
aI623
asS'3383'
p6497
(lp6498
I5368790
aI31959
asS'3380'
p6499
(lp6500
I5300675
aI34831
asS'3381'
p6501
(lp6502
I5335506
aI32661
asS'3388'
p6503
(lp6504
I5447865
aI9410
asS'3389'
p6505
(lp6506
I5457275
aI3217
asS'1409'
p6507
(lp6508
I598971
aI1191
asS'1408'
p6509
(lp6510
I597450
aI1521
asS'1403'
p6511
(lp6512
I595230
aI752
asS'1402'
p6513
(lp6514
I594714
aI516
asS'1401'
p6515
(lp6516
I594209
aI505
asS'1400'
p6517
(lp6518
I593745
aI464
asS'1407'
p6519
(lp6520
I597260
aI190
asS'1406'
p6521
(lp6522
I597053
aI207
asS'1405'
p6523
(lp6524
I596856
aI197
asS'1404'
p6525
(lp6526
I595982
aI874
asS'1546'
p6527
(lp6528
I711034
aI175
asS'449'
p6529
(lp6530
I143152
aI156
asS'448'
p6531
(lp6532
I142999
aI153
asS'1339'
p6533
(lp6534
I540535
aI185
asS'1338'
p6535
(lp6536
I540100
aI435
asS'1547'
p6537
(lp6538
I711209
aI234
asS'443'
p6539
(lp6540
I142188
aI172
asS'442'
p6541
(lp6542
I142008
aI180
asS'441'
p6543
(lp6544
I140881
aI1127
asS'440'
p6545
(lp6546
I139864
aI1017
asS'447'
p6547
(lp6548
I142831
aI168
asS'446'
p6549
(lp6550
I142670
aI161
asS'445'
p6551
(lp6552
I142523
aI147
asS'444'
p6553
(lp6554
I142360
aI163
asS'1520'
p6555
(lp6556
I690689
aI205
asS'1542'
p6557
(lp6558
I706877
aI1382
asS'1543'
p6559
(lp6560
I708259
aI1675
asS'3261'
p6561
(lp6562
I3257554
aI12151
asS'39'
p6563
(lp6564
I7675
aI366
asS'38'
p6565
(lp6566
I7512
aI163
asS'4201'
p6567
(lp6568
I20623063
aI31813
asS'1540'
p6569
(lp6570
I705475
aI714
asS'3260'
p6571
(lp6572
I3254467
aI3087
asS'33'
p6573
(lp6574
I6638
aI188
asS'32'
p6575
(lp6576
I6474
aI164
asS'31'
p6577
(lp6578
I6340
aI134
asS'30'
p6579
(lp6580
I6154
aI186
asS'37'
p6581
(lp6582
I7362
aI150
asS'36'
p6583
(lp6584
I7156
aI206
asS'35'
p6585
(lp6586
I6972
aI184
asS'34'
p6587
(lp6588
I6826
aI146
asS'641'
p6589
(lp6590
I206091
aI187
asS'640'
p6591
(lp6592
I205901
aI190
asS'643'
p6593
(lp6594
I207014
aI329
asS'642'
p6595
(lp6596
I206278
aI736
asS'645'
p6597
(lp6598
I208752
aI156
asS'644'
p6599
(lp6600
I207343
aI1409
asS'647'
p6601
(lp6602
I209093
aI182
asS'1246'
p6603
(lp6604
I484020
aI154
asS'649'
p6605
(lp6606
I209428
aI146
asS'1248'
p6607
(lp6608
I485036
aI594
asS'3098'
p6609
(lp6610
I2085849
aI1009
asS'2496'
p6611
(lp6612
I1511034
aI1017
asS'1539'
p6613
(lp6614
I705030
aI445
asS'1538'
p6615
(lp6616
I704778
aI252
asS'339'
p6617
(lp6618
I108677
aI184
asS'338'
p6619
(lp6620
I108528
aI149
asS'335'
p6621
(lp6622
I107493
aI638
asS'334'
p6623
(lp6624
I107312
aI181
asS'337'
p6625
(lp6626
I108372
aI156
asS'336'
p6627
(lp6628
I108131
aI241
asS'331'
p6629
(lp6630
I106157
aI208
asS'330'
p6631
(lp6632
I105983
aI174
asS'333'
p6633
(lp6634
I107080
aI232
asS'332'
p6635
(lp6636
I106365
aI715
asS'4101'
p6637
(lp6638
I18615108
aI31074
asS'4100'
p6639
(lp6640
I18602479
aI12629
asS'4103'
p6641
(lp6642
I18651402
aI18211
asS'4102'
p6643
(lp6644
I18646182
aI5220
asS'4105'
p6645
(lp6646
I18684755
aI23469
asS'4104'
p6647
(lp6648
I18669613
aI15142
asS'4107'
p6649
(lp6650
I18734240
aI4836
asS'4106'
p6651
(lp6652
I18708224
aI26016
asS'4109'
p6653
(lp6654
I18746886
aI35680
asS'4108'
p6655
(lp6656
I18739076
aI7810
asS'1026'
p6657
(lp6658
I353239
aI884
asS'3377'
p6659
(lp6660
I5213997
aI34438
asS'3898'
p6661
(lp6662
I14961971
aI30488
asS'3899'
p6663
(lp6664
I14992459
aI35884
asS'3892'
p6665
(lp6666
I14878736
aI2526
asS'3893'
p6667
(lp6668
I14881262
aI35321
asS'3890'
p6669
(lp6670
I14842773
aI26137
asS'3891'
p6671
(lp6672
I14868910
aI9826
asS'3896'
p6673
(lp6674
I14921088
aI23273
asS'3897'
p6675
(lp6676
I14944361
aI17610
asS'3894'
p6677
(lp6678
I14916583
aI1479
asS'2118'
p6679
(lp6680
I1187575
aI374
asS'3467'
p6681
(lp6682
I6848594
aI27195
asS'3466'
p6683
(lp6684
I6845531
aI3063
asS'3195'
p6685
(lp6686
I2181639
aI556
asS'3464'
p6687
(lp6688
I6816676
aI13161
asS'8'
p6689
(lp6690
I1346
aI167
asS'3463'
p6691
(lp6692
I6803159
aI13517
asS'2119'
p6693
(lp6694
I1187949
aI351
asS'3462'
p6695
(lp6696
I6778879
aI24280
asS'4079'
p6697
(lp6698
I18184190
aI8039
asS'3461'
p6699
(lp6700
I6745630
aI33249
asS'4075'
p6701
(lp6702
I18094716
aI28106
asS'4074'
p6703
(lp6704
I18081833
aI12883
asS'4077'
p6705
(lp6706
I18130998
aI32994
asS'3460'
p6707
(lp6708
I6726305
aI19325
asS'4071'
p6709
(lp6710
I18015984
aI28534
asS'3375'
p6711
(lp6712
I5172045
aI15475
asS'4073'
p6713
(lp6714
I18059263
aI22570
asS'4072'
p6715
(lp6716
I18044518
aI14745
asS'3966'
p6717
(lp6718
I16062028
aI17612
asS'3967'
p6719
(lp6720
I16079640
aI25766
asS'3964'
p6721
(lp6722
I16053719
aI6784
asS'3965'
p6723
(lp6724
I16060503
aI1525
asS'3962'
p6725
(lp6726
I16011967
aI32158
asS'3963'
p6727
(lp6728
I16044125
aI9594
asS'3960'
p6729
(lp6730
I15983954
aI24948
asS'3704'
p6731
(lp6732
I11426481
aI32595
asS'3200'
p6733
(lp6734
I2185139
aI1356
asS'1462'
p6735
(lp6736
I636708
aI1602
asS'3968'
p6737
(lp6738
I16105406
aI19479
asS'3969'
p6739
(lp6740
I16124885
aI20578
asS'2854'
p6741
(lp6742
I1817528
aI194
asS'3435'
p6743
(lp6744
I6198781
aI13157
asS'3638'
p6745
(lp6746
I10209108
aI10737
asS'3639'
p6747
(lp6748
I10219845
aI32446
asS'3636'
p6749
(lp6750
I10156536
aI16508
asS'3637'
p6751
(lp6752
I10173044
aI36064
asS'3634'
p6753
(lp6754
I10109224
aI36474
asS'3635'
p6755
(lp6756
I10145698
aI10838
asS'3632'
p6757
(lp6758
I10072848
aI24767
asS'3633'
p6759
(lp6760
I10097615
aI11609
asS'3630'
p6761
(lp6762
I10062080
aI4665
asS'3631'
p6763
(lp6764
I10066745
aI6103
asS'3469'
p6765
(lp6766
I6886399
aI3457
asS'3468'
p6767
(lp6768
I6875789
aI10610
asS'1991'
p6769
(lp6770
I1085200
aI335
asS'2345'
p6771
(lp6772
I1394347
aI1393
asS'2344'
p6773
(lp6774
I1392446
aI1901
asS'2347'
p6775
(lp6776
I1396065
aI294
asS'2346'
p6777
(lp6778
I1395740
aI325
asS'2341'
p6779
(lp6780
I1386712
aI2198
asS'2340'
p6781
(lp6782
I1385222
aI1490
asS'2343'
p6783
(lp6784
I1391104
aI1342
asS'2342'
p6785
(lp6786
I1388910
aI2194
asS'2349'
p6787
(lp6788
I1396655
aI562
asS'2348'
p6789
(lp6790
I1396359
aI296
asS'3253'
p6791
(lp6792
I3126185
aI7975
asS'3708'
p6793
(lp6794
I11509269
aI8063
asS'3709'
p6795
(lp6796
I11517332
aI16246
asS'1889'
p6797
(lp6798
I999690
aI1189
asS'1888'
p6799
(lp6800
I998734
aI956
asS'1887'
p6801
(lp6802
I998195
aI539
asS'1886'
p6803
(lp6804
I996709
aI1486
asS'1885'
p6805
(lp6806
I995428
aI1281
asS'1884'
p6807
(lp6808
I994448
aI980
asS'1883'
p6809
(lp6810
I993958
aI490
asS'1882'
p6811
(lp6812
I993665
aI293
asS'1881'
p6813
(lp6814
I993407
aI258
asS'1880'
p6815
(lp6816
I992940
aI467
asS'2121'
p6817
(lp6818
I1188702
aI219
asS'2120'
p6819
(lp6820
I1188300
aI402
asS'2123'
p6821
(lp6822
I1189304
aI299
asS'2122'
p6823
(lp6824
I1188921
aI383
asS'2125'
p6825
(lp6826
I1189911
aI1019
asS'2124'
p6827
(lp6828
I1189603
aI308
asS'948'
p6829
(lp6830
I317549
aI196
asS'949'
p6831
(lp6832
I317745
aI1089
asS'946'
p6833
(lp6834
I317095
aI259
asS'947'
p6835
(lp6836
I317354
aI195
asS'944'
p6837
(lp6838
I315557
aI1071
asS'945'
p6839
(lp6840
I316628
aI467
asS'942'
p6841
(lp6842
I314527
aI863
asS'943'
p6843
(lp6844
I315390
aI167
asS'940'
p6845
(lp6846
I313484
aI587
asS'941'
p6847
(lp6848
I314071
aI456
asS'3038'
p6849
(lp6850
I2014946
aI833
asS'2410'
p6851
(lp6852
I1451390
aI629
asS'2659'
p6853
(lp6854
I1641315
aI294
asS'2658'
p6855
(lp6856
I1641014
aI301
asS'2653'
p6857
(lp6858
I1638228
aI233
asS'2652'
p6859
(lp6860
I1636771
aI1457
asS'2651'
p6861
(lp6862
I1635512
aI1259
asS'2650'
p6863
(lp6864
I1634206
aI1306
asS'2657'
p6865
(lp6866
I1639916
aI1098
asS'2656'
p6867
(lp6868
I1639062
aI854
asS'2655'
p6869
(lp6870
I1638749
aI313
asS'2654'
p6871
(lp6872
I1638461
aI288
asS'133'
p6873
(lp6874
I39933
aI183
asS'132'
p6875
(lp6876
I39786
aI147
asS'131'
p6877
(lp6878
I39604
aI182
asS'130'
p6879
(lp6880
I39428
aI176
asS'137'
p6881
(lp6882
I40674
aI178
asS'136'
p6883
(lp6884
I40512
aI162
asS'135'
p6885
(lp6886
I40353
aI159
asS'134'
p6887
(lp6888
I40116
aI237
asS'139'
p6889
(lp6890
I41050
aI159
asS'138'
p6891
(lp6892
I40852
aI198
asS'3418'
p6893
(lp6894
I5910785
aI24854
asS'3419'
p6895
(lp6896
I5935639
aI30583
asS'3518'
p6897
(lp6898
I7822679
aI24517
asS'2019'
p6899
(lp6900
I1106384
aI947
asS'2018'
p6901
(lp6902
I1104738
aI1646
asS'2015'
p6903
(lp6904
I1100056
aI1454
asS'2014'
p6905
(lp6906
I1099793
aI263
asS'2017'
p6907
(lp6908
I1102600
aI2138
asS'2016'
p6909
(lp6910
I1101510
aI1090
asS'2011'
p6911
(lp6912
I1098997
aI273
asS'2010'
p6913
(lp6914
I1098747
aI250
asS'2013'
p6915
(lp6916
I1099563
aI230
asS'2012'
p6917
(lp6918
I1099270
aI293
asS'3277'
p6919
(lp6920
I3517986
aI8415
asS'1793'
p6921
(lp6922
I921421
aI371
asS'3562'
p6923
(lp6924
I8731612
aI20621
asS'3563'
p6925
(lp6926
I8752233
aI14258
asS'3560'
p6927
(lp6928
I8692853
aI17267
asS'3561'
p6929
(lp6930
I8710120
aI21492
asS'3566'
p6931
(lp6932
I8792089
aI34819
asS'3567'
p6933
(lp6934
I8826908
aI35546
asS'3564'
p6935
(lp6936
I8766491
aI17575
asS'3565'
p6937
(lp6938
I8784066
aI8023
asS'3034'
p6939
(lp6940
I2010896
aI1103
asS'3568'
p6941
(lp6942
I8862454
aI32079
asS'2112'
p6943
(lp6944
I1182876
aI1103
asS'3000'
p6945
(lp6946
I1973491
aI1026
asS'2903'
p6947
(lp6948
I1873103
aI1079
asS'2902'
p6949
(lp6950
I1871158
aI1945
asS'2901'
p6951
(lp6952
I1869800
aI1358
asS'2900'
p6953
(lp6954
I1869076
aI724
asS'708'
p6955
(lp6956
I235191
aI178
asS'709'
p6957
(lp6958
I235369
aI147
asS'2905'
p6959
(lp6960
I1874837
aI1634
asS'2904'
p6961
(lp6962
I1874182
aI655
asS'704'
p6963
(lp6964
I234425
aI218
asS'705'
p6965
(lp6966
I234643
aI183
asS'706'
p6967
(lp6968
I234826
aI169
asS'707'
p6969
(lp6970
I234995
aI196
asS'700'
p6971
(lp6972
I233811
aI159
asS'701'
p6973
(lp6974
I233970
aI153
asS'702'
p6975
(lp6976
I234123
aI157
asS'703'
p6977
(lp6978
I234280
aI145
asS'3037'
p6979
(lp6980
I2014103
aI843
asS'88'
p6981
(lp6982
I23981
aI286
asS'89'
p6983
(lp6984
I24267
aI222
asS'3926'
p6985
(lp6986
I15439222
aI24880
asS'82'
p6987
(lp6988
I22272
aI409
asS'83'
p6989
(lp6990
I22681
aI236
asS'80'
p6991
(lp6992
I21922
aI211
asS'81'
p6993
(lp6994
I22133
aI139
asS'86'
p6995
(lp6996
I23382
aI348
asS'87'
p6997
(lp6998
I23730
aI251
asS'84'
p6999
(lp7000
I22917
aI290
asS'85'
p7001
(lp7002
I23207
aI175
asS'3036'
p7003
(lp7004
I2013139
aI964
asS'1658'
p7005
(lp7006
I792058
aI836
asS'1659'
p7007
(lp7008
I792894
aI1304
asS'1652'
p7009
(lp7010
I787615
aI1211
asS'1388'
p7011
(lp7012
I578567
aI1479
asS'1650'
p7013
(lp7014
I784992
aI1372
asS'1651'
p7015
(lp7016
I786364
aI1251
asS'1656'
p7017
(lp7018
I791187
aI237
asS'1657'
p7019
(lp7020
I791424
aI634
asS'1654'
p7021
(lp7022
I789875
aI777
asS'1389'
p7023
(lp7024
I580046
aI1007
asS'586'
p7025
(lp7026
I185587
aI223
asS'587'
p7027
(lp7028
I185810
aI195
asS'584'
p7029
(lp7030
I182848
aI1396
asS'585'
p7031
(lp7032
I184244
aI1343
asS'582'
p7033
(lp7034
I182130
aI131
asS'583'
p7035
(lp7036
I182261
aI587
asS'580'
p7037
(lp7038
I181820
aI161
asS'581'
p7039
(lp7040
I181981
aI149
asS'1984'
p7041
(lp7042
I1081088
aI202
asS'588'
p7043
(lp7044
I186005
aI152
asS'589'
p7045
(lp7046
I186157
aI176
asS'3153'
p7047
(lp7048
I2144907
aI1401
asS'3152'
p7049
(lp7050
I2143639
aI1268
asS'3151'
p7051
(lp7052
I2143004
aI635
asS'1633'
p7053
(lp7054
I771717
aI488
asS'3157'
p7055
(lp7056
I2149104
aI1501
asS'3156'
p7057
(lp7058
I2148206
aI898
asS'2839'
p7059
(lp7060
I1800520
aI844
asS'2838'
p7061
(lp7062
I1798752
aI1768
asS'2837'
p7063
(lp7064
I1797979
aI773
asS'1982'
p7065
(lp7066
I1080265
aI617
asS'2835'
p7067
(lp7068
I1796513
aI759
asS'2834'
p7069
(lp7070
I1795633
aI880
asS'2833'
p7071
(lp7072
I1793884
aI1749
asS'2832'
p7073
(lp7074
I1793033
aI851
asS'2831'
p7075
(lp7076
I1792808
aI225
asS'1983'
p7077
(lp7078
I1080882
aI206
asS'1436'
p7079
(lp7080
I621165
aI180
asS'1437'
p7081
(lp7082
I621345
aI174
asS'1434'
p7083
(lp7084
I619513
aI712
asS'1435'
p7085
(lp7086
I620225
aI940
asS'1432'
p7087
(lp7088
I617654
aI620
asS'1433'
p7089
(lp7090
I618274
aI1239
asS'1430'
p7091
(lp7092
I616518
aI769
asS'1431'
p7093
(lp7094
I617287
aI367
asS'3399'
p7095
(lp7096
I5571224
aI22282
asS'1380'
p7097
(lp7098
I569323
aI2033
asS'1981'
p7099
(lp7100
I1080021
aI244
asS'1438'
p7101
(lp7102
I621519
aI336
asS'1381'
p7103
(lp7104
I571356
aI1467
asS'1349'
p7105
(lp7106
I546129
aI1060
asS'1541'
p7107
(lp7108
I706189
aI688
asS'1348'
p7109
(lp7110
I545112
aI1017
asS'459'
p7111
(lp7112
I145008
aI150
asS'450'
p7113
(lp7114
I143308
aI209
asS'451'
p7115
(lp7116
I143517
aI175
asS'452'
p7117
(lp7118
I143692
aI174
asS'1343'
p7119
(lp7120
I541877
aI166
asS'1344'
p7121
(lp7122
I542043
aI596
asS'1345'
p7123
(lp7124
I542639
aI475
asS'456'
p7125
(lp7126
I144480
aI168
asS'457'
p7127
(lp7128
I144648
aI183
asS'3702'
p7129
(lp7130
I11400887
aI16891
asS'3703'
p7131
(lp7132
I11417778
aI8703
asS'3032'
p7133
(lp7134
I2008156
aI1318
asS'3701'
p7135
(lp7136
I11376982
aI23905
asS'3263'
p7137
(lp7138
I3285577
aI8393
asS'3368'
p7139
(lp7140
I5020739
aI22433
asS'3706'
p7141
(lp7142
I11468336
aI23696
asS'3707'
p7143
(lp7144
I11492032
aI17237
asS'656'
p7145
(lp7146
I211729
aI244
asS'657'
p7147
(lp7148
I211973
aI269
asS'654'
p7149
(lp7150
I211084
aI173
asS'655'
p7151
(lp7152
I211257
aI472
asS'652'
p7153
(lp7154
I209921
aI211
asS'653'
p7155
(lp7156
I210132
aI952
asS'650'
p7157
(lp7158
I209574
aI169
asS'651'
p7159
(lp7160
I209743
aI178
asS'3085'
p7161
(lp7162
I2069786
aI945
asS'3084'
p7163
(lp7164
I2068949
aI837
asS'1508'
p7165
(lp7166
I683861
aI189
asS'1509'
p7167
(lp7168
I684050
aI207
asS'3081'
p7169
(lp7170
I2065493
aI1444
asS'3080'
p7171
(lp7172
I2064095
aI1398
asS'658'
p7173
(lp7174
I212242
aI202
asS'516'
p7175
(lp7176
I164417
aI154
asS'3943'
p7177
(lp7178
I15710787
aI721
asS'3944'
p7179
(lp7180
I15711508
aI28011
asS'3945'
p7181
(lp7182
I15739519
aI7844
asS'3946'
p7183
(lp7184
I15747363
aI2425
asS'3947'
p7185
(lp7186
I15749788
aI10838
asS'1992'
p7187
(lp7188
I1085535
aI890
asS'3884'
p7189
(lp7190
I14750035
aI11738
asS'3887'
p7191
(lp7192
I14797260
aI32661
asS'3886'
p7193
(lp7194
I14776656
aI20604
asS'3881'
p7195
(lp7196
I14684250
aI18494
asS'2127'
p7197
(lp7198
I1192434
aI2036
asS'3883'
p7199
(lp7200
I14715267
aI34768
asS'3882'
p7201
(lp7202
I14702744
aI12523
asS'2126'
p7203
(lp7204
I1190930
aI1504
asS'3889'
p7205
(lp7206
I14838404
aI4369
asS'3888'
p7207
(lp7208
I14829921
aI8483
asS'2129'
p7209
(lp7210
I1195291
aI580
asS'2128'
p7211
(lp7212
I1194470
aI821
asS'2815'
p7213
(lp7214
I1777738
aI611
asS'2814'
p7215
(lp7216
I1777562
aI176
asS'4008'
p7217
(lp7218
I16927455
aI884
asS'4009'
p7219
(lp7220
I16928339
aI21443
asS'1376'
p7221
(lp7222
I566713
aI174
asS'4000'
p7223
(lp7224
I16775628
aI28885
asS'4001'
p7225
(lp7226
I16804513
aI15547
asS'4002'
p7227
(lp7228
I16820060
aI17819
asS'4003'
p7229
(lp7230
I16837879
aI29101
asS'4004'
p7231
(lp7232
I16866980
aI29394
asS'4005'
p7233
(lp7234
I16896374
aI13015
asS'4006'
p7235
(lp7236
I16909389
aI8185
asS'4007'
p7237
(lp7238
I16917574
aI9881
asS'322'
p7239
(lp7240
I102713
aI908
asS'323'
p7241
(lp7242
I103621
aI294
asS'320'
p7243
(lp7244
I99886
aI813
asS'321'
p7245
(lp7246
I100699
aI2014
asS'326'
p7247
(lp7248
I104503
aI144
asS'327'
p7249
(lp7250
I104647
aI247
asS'324'
p7251
(lp7252
I103915
aI405
asS'325'
p7253
(lp7254
I104320
aI183
asS'3979'
p7255
(lp7256
I16305166
aI27287
asS'3978'
p7257
(lp7258
I16269978
aI35188
asS'328'
p7259
(lp7260
I104894
aI147
asS'329'
p7261
(lp7262
I105041
aI942
asS'3365'
p7263
(lp7264
I4981625
aI15281
asS'3629'
p7265
(lp7266
I10039778
aI22302
asS'3628'
p7267
(lp7268
I10032199
aI7579
asS'3621'
p7269
(lp7270
I9884544
aI7861
asS'2819'
p7271
(lp7272
I1780928
aI950
asS'3623'
p7273
(lp7274
I9916293
aI33565
asS'3622'
p7275
(lp7276
I9892405
aI23888
asS'3625'
p7277
(lp7278
I9977704
aI34556
asS'3624'
p7279
(lp7280
I9949858
aI27846
asS'1340'
p7281
(lp7282
I540720
aI281
asS'2818'
p7283
(lp7284
I1780700
aI228
asS'2330'
p7285
(lp7286
I1381163
aI397
asS'2331'
p7287
(lp7288
I1381560
aI248
asS'2332'
p7289
(lp7290
I1381808
aI265
asS'2333'
p7291
(lp7292
I1382073
aI370
asS'2334'
p7293
(lp7294
I1382443
aI320
asS'2335'
p7295
(lp7296
I1382763
aI339
asS'2336'
p7297
(lp7298
I1383102
aI271
asS'1594'
p7299
(lp7300
I739704
aI1100
asS'2338'
p7301
(lp7302
I1383823
aI412
asS'2339'
p7303
(lp7304
I1384235
aI987
asS'1341'
p7305
(lp7306
I541001
aI706
asS'3072'
p7307
(lp7308
I2051634
aI1380
asS'3073'
p7309
(lp7310
I2053014
aI1902
asS'1995'
p7311
(lp7312
I1087085
aI275
asS'2958'
p7313
(lp7314
I1932717
aI1157
asS'2959'
p7315
(lp7316
I1933874
aI1160
asS'3715'
p7317
(lp7318
I11605933
aI34755
asS'3714'
p7319
(lp7320
I11603321
aI2612
asS'3717'
p7321
(lp7322
I11647767
aI22359
asS'3716'
p7323
(lp7324
I11640688
aI7079
asS'3711'
p7325
(lp7326
I11555381
aI3905
asS'3076'
p7327
(lp7328
I2057336
aI1984
asS'3713'
p7329
(lp7330
I11583538
aI19783
asS'3712'
p7331
(lp7332
I11559286
aI24252
asS'1592'
p7333
(lp7334
I738093
aI876
asS'3719'
p7335
(lp7336
I11677131
aI5250
asS'3718'
p7337
(lp7338
I11670126
aI7005
asS'4126'
p7339
(lp7340
I19153678
aI2775
asS'3078'
p7341
(lp7342
I2062643
aI1010
asS'3079'
p7343
(lp7344
I2063653
aI442
asS'2488'
p7345
(lp7346
I1505767
aI474
asS'2489'
p7347
(lp7348
I1506241
aI383
asS'2486'
p7349
(lp7350
I1504166
aI981
asS'2487'
p7351
(lp7352
I1505147
aI620
asS'2484'
p7353
(lp7354
I1501830
aI1268
asS'2485'
p7355
(lp7356
I1503098
aI1068
asS'2482'
p7357
(lp7358
I1498833
aI1226
asS'2483'
p7359
(lp7360
I1500059
aI1771
asS'2480'
p7361
(lp7362
I1496519
aI1462
asS'1598'
p7363
(lp7364
I742152
aI192
asS'3252'
p7365
(lp7366
I3116817
aI9368
asS'2248'
p7367
(lp7368
I1310007
aI772
asS'2249'
p7369
(lp7370
I1310779
aI1095
asS'2244'
p7371
(lp7372
I1305940
aI269
asS'2245'
p7373
(lp7374
I1306209
aI1485
asS'2246'
p7375
(lp7376
I1307694
aI824
asS'2247'
p7377
(lp7378
I1308518
aI1489
asS'2240'
p7379
(lp7380
I1304814
aI243
asS'2241'
p7381
(lp7382
I1305057
aI311
asS'2242'
p7383
(lp7384
I1305368
aI309
asS'2243'
p7385
(lp7386
I1305677
aI263
asS'995'
p7387
(lp7388
I338070
aI147
asS'994'
p7389
(lp7390
I337918
aI152
asS'997'
p7391
(lp7392
I338448
aI192
asS'996'
p7393
(lp7394
I338217
aI231
asS'991'
p7395
(lp7396
I337423
aI181
asS'990'
p7397
(lp7398
I335964
aI1459
asS'993'
p7399
(lp7400
I337763
aI155
asS'992'
p7401
(lp7402
I337604
aI159
asS'999'
p7403
(lp7404
I338794
aI153
asS'998'
p7405
(lp7406
I338640
aI154
asS'120'
p7407
(lp7408
I35662
aI210
asS'121'
p7409
(lp7410
I35872
aI181
asS'122'
p7411
(lp7412
I36053
aI207
asS'123'
p7413
(lp7414
I36260
aI1832
asS'124'
p7415
(lp7416
I38092
aI496
asS'125'
p7417
(lp7418
I38588
aI185
asS'126'
p7419
(lp7420
I38773
aI185
asS'127'
p7421
(lp7422
I38958
aI146
asS'128'
p7423
(lp7424
I39104
aI155
asS'129'
p7425
(lp7426
I39259
aI169
asS'3416'
p7427
(lp7428
I5879073
aI15113
asS'3379'
p7429
(lp7430
I5279998
aI20677
asS'3417'
p7431
(lp7432
I5894186
aI16599
asS'3378'
p7433
(lp7434
I5248435
aI31563
asS'3414'
p7435
(lp7436
I5809073
aI33670
asS'2068'
p7437
(lp7438
I1148488
aI283
asS'2069'
p7439
(lp7440
I1148771
aI354
asS'2798'
p7441
(lp7442
I1763257
aI1166
asS'2799'
p7443
(lp7444
I1764423
aI998
asS'3376'
p7445
(lp7446
I5187520
aI26477
asS'2060'
p7447
(lp7448
I1139084
aI3276
asS'2061'
p7449
(lp7450
I1142360
aI2124
asS'2062'
p7451
(lp7452
I1144484
aI835
asS'2063'
p7453
(lp7454
I1145319
aI154
asS'2064'
p7455
(lp7456
I1145473
aI1068
asS'2065'
p7457
(lp7458
I1146541
aI1339
asS'2066'
p7459
(lp7460
I1147880
aI298
asS'2067'
p7461
(lp7462
I1148178
aI310
asS'3374'
p7463
(lp7464
I5146211
aI25834
asS'3410'
p7465
(lp7466
I5736858
aI34237
asS'3373'
p7467
(lp7468
I5118950
aI27261
asS'3411'
p7469
(lp7470
I5771095
aI22167
asS'3255'
p7471
(lp7472
I3156578
aI21646
asS'3372'
p7473
(lp7474
I5085974
aI32976
asS'3371'
p7475
(lp7476
I5076245
aI9729
asS'3370'
p7477
(lp7478
I5046709
aI29536
asS'3579'
p7479
(lp7480
I9128929
aI21735
asS'3578'
p7481
(lp7482
I9102855
aI26074
asS'3961'
p7483
(lp7484
I16008902
aI3065
asS'3575'
p7485
(lp7486
I9022143
aI33143
asS'3574'
p7487
(lp7488
I9007631
aI14512
asS'3077'
p7489
(lp7490
I2059320
aI3323
asS'3576'
p7491
(lp7492
I9055286
aI21539
asS'3571'
p7493
(lp7494
I8933059
aI24414
asS'3570'
p7495
(lp7496
I8927410
aI5649
asS'3573'
p7497
(lp7498
I8977160
aI30471
asS'3572'
p7499
(lp7500
I8957473
aI19687
asS'2666'
p7501
(lp7502
I1644529
aI736
asS'2667'
p7503
(lp7504
I1645265
aI1436
asS'2664'
p7505
(lp7506
I1642719
aI569
asS'2665'
p7507
(lp7508
I1643288
aI1241
asS'2662'
p7509
(lp7510
I1642132
aI308
asS'2663'
p7511
(lp7512
I1642440
aI279
asS'2660'
p7513
(lp7514
I1641609
aI247
asS'2661'
p7515
(lp7516
I1641856
aI276
asS'1748'
p7517
(lp7518
I874589
aI1564
asS'2668'
p7519
(lp7520
I1646701
aI1304
asS'1749'
p7521
(lp7522
I876153
aI2183
asS'3668'
p7523
(lp7524
I10758909
aI5594
asS'2938'
p7525
(lp7526
I1910700
aI959
asS'2939'
p7527
(lp7528
I1911659
aI1770
asS'2936'
p7529
(lp7530
I1908484
aI1179
asS'2937'
p7531
(lp7532
I1909663
aI1037
asS'2934'
p7533
(lp7534
I1907532
aI731
asS'2935'
p7535
(lp7536
I1908263
aI221
asS'2932'
p7537
(lp7538
I1906522
aI558
asS'2933'
p7539
(lp7540
I1907080
aI452
asS'2930'
p7541
(lp7542
I1903281
aI650
asS'2931'
p7543
(lp7544
I1903931
aI2591
asS'3799'
p7545
(lp7546
I13184532
aI8150
asS'3595'
p7547
(lp7548
I9434466
aI19079
asS'1645'
p7549
(lp7550
I780518
aI816
asS'1644'
p7551
(lp7552
I780002
aI516
asS'1647'
p7553
(lp7554
I782588
aI1353
asS'1646'
p7555
(lp7556
I781334
aI1254
asS'1641'
p7557
(lp7558
I776621
aI2215
asS'1640'
p7559
(lp7560
I776411
aI210
asS'1643'
p7561
(lp7562
I779432
aI570
asS'1642'
p7563
(lp7564
I778836
aI596
asS'1649'
p7565
(lp7566
I784250
aI742
asS'1648'
p7567
(lp7568
I783941
aI309
asS'1742'
p7569
(lp7570
I868180
aI994
asS'3794'
p7571
(lp7572
I13081765
aI28608
asS'1743'
p7573
(lp7574
I869174
aI674
asS'3797'
p7575
(lp7576
I13133673
aI21136
asS'579'
p7577
(lp7578
I181526
aI294
asS'578'
p7579
(lp7580
I181349
aI177
asS'573'
p7581
(lp7582
I180333
aI170
asS'572'
p7583
(lp7584
I180168
aI165
asS'571'
p7585
(lp7586
I179983
aI185
asS'570'
p7587
(lp7588
I179697
aI286
asS'577'
p7589
(lp7590
I181144
aI205
asS'576'
p7591
(lp7592
I180859
aI285
asS'575'
p7593
(lp7594
I180679
aI180
asS'574'
p7595
(lp7596
I180503
aI176
asS'2808'
p7597
(lp7598
I1771721
aI734
asS'2809'
p7599
(lp7600
I1772455
aI732
asS'3793'
p7601
(lp7602
I13075211
aI6554
asS'3168'
p7603
(lp7604
I2159976
aI366
asS'3169'
p7605
(lp7606
I2160342
aI348
asS'2802'
p7607
(lp7608
I1767510
aI1132
asS'1209'
p7609
(lp7610
I462596
aI199
asS'2800'
p7611
(lp7612
I1765421
aI1135
asS'2801'
p7613
(lp7614
I1766556
aI954
asS'2806'
p7615
(lp7616
I1770225
aI561
asS'2807'
p7617
(lp7618
I1770786
aI935
asS'2804'
p7619
(lp7620
I1769040
aI500
asS'1208'
p7621
(lp7622
I462342
aI254
asS'1421'
p7623
(lp7624
I608665
aI1908
asS'1420'
p7625
(lp7626
I608026
aI639
asS'1423'
p7627
(lp7628
I610754
aI1229
asS'1422'
p7629
(lp7630
I610573
aI181
asS'1425'
p7631
(lp7632
I612478
aI1416
asS'1424'
p7633
(lp7634
I611983
aI495
asS'1427'
p7635
(lp7636
I614634
aI858
asS'1426'
p7637
(lp7638
I613894
aI740
asS'1429'
p7639
(lp7640
I615920
aI598
asS'1428'
p7641
(lp7642
I615492
aI428
asS'3366'
p7643
(lp7644
I4996906
aI6679
asS'3367'
p7645
(lp7646
I5003585
aI17154
asS'3360'
p7647
(lp7648
I4903267
aI13745
asS'2156'
p7649
(lp7650
I1221739
aI659
asS'3362'
p7651
(lp7652
I4938080
aI23775
asS'3363'
p7653
(lp7654
I4961855
aI17903
asS'731'
p7655
(lp7656
I244844
aI1787
asS'730'
p7657
(lp7658
I243719
aI1125
asS'733'
p7659
(lp7660
I246790
aI199
asS'732'
p7661
(lp7662
I246631
aI159
asS'735'
p7663
(lp7664
I247189
aI190
asS'734'
p7665
(lp7666
I246989
aI200
asS'737'
p7667
(lp7668
I247549
aI167
asS'736'
p7669
(lp7670
I247379
aI170
asS'739'
p7671
(lp7672
I247882
aI150
asS'738'
p7673
(lp7674
I247716
aI166
asS'2403'
p7675
(lp7676
I1447023
aI307
asS'4057'
p7677
(lp7678
I17750784
aI10072
asS'1359'
p7679
(lp7680
I556338
aI1107
asS'1358'
p7681
(lp7682
I553955
aI2383
asS'469'
p7683
(lp7684
I150603
aI161
asS'468'
p7685
(lp7686
I150433
aI170
asS'1353'
p7687
(lp7688
I551020
aI518
asS'1352'
p7689
(lp7690
I549932
aI1088
asS'1351'
p7691
(lp7692
I549429
aI503
asS'1350'
p7693
(lp7694
I547189
aI2240
asS'461'
p7695
(lp7696
I145306
aI193
asS'1356'
p7697
(lp7698
I553471
aI311
asS'463'
p7699
(lp7700
I146507
aI1256
asS'462'
p7701
(lp7702
I145499
aI1008
asS'4054'
p7703
(lp7704
I17705891
aI13135
asS'3393'
p7705
(lp7706
I5486047
aI22754
asS'1273'
p7707
(lp7708
I503716
aI584
asS'2158'
p7709
(lp7710
I1222673
aI408
asS'2159'
p7711
(lp7712
I1223081
aI366
asS'1519'
p7713
(lp7714
I689797
aI892
asS'1518'
p7715
(lp7716
I688828
aI969
asS'3392'
p7717
(lp7718
I5476536
aI9511
asS'1515'
p7719
(lp7720
I685765
aI762
asS'1514'
p7721
(lp7722
I685112
aI653
asS'1517'
p7723
(lp7724
I687528
aI1300
asS'1516'
p7725
(lp7726
I686527
aI1001
asS'1274'
p7727
(lp7728
I504300
aI557
asS'1510'
p7729
(lp7730
I684257
aI228
asS'1513'
p7731
(lp7732
I684946
aI166
asS'1512'
p7733
(lp7734
I684750
aI196
asS'3031'
p7735
(lp7736
I2006950
aI1206
asS'3439'
p7737
(lp7738
I6301074
aI12307
asS'3395'
p7739
(lp7740
I5517963
aI33948
asS'1735'
p7741
(lp7742
I862438
aI628
asS'1275'
p7743
(lp7744
I504857
aI218
asS'4058'
p7745
(lp7746
I17760856
aI21569
asS'3184'
p7747
(lp7748
I2171773
aI3537
asS'3185'
p7749
(lp7750
I2175310
aI659
asS'3186'
p7751
(lp7752
I2175969
aI624
asS'3187'
p7753
(lp7754
I2176593
aI629
asS'3180'
p7755
(lp7756
I2167705
aI704
asS'3181'
p7757
(lp7758
I2168409
aI1097
asS'3182'
p7759
(lp7760
I2169506
aI1321
asS'3183'
p7761
(lp7762
I2170827
aI946
asS'3188'
p7763
(lp7764
I2177222
aI1271
asS'3189'
p7765
(lp7766
I2178493
aI595
asS'3214'
p7767
(lp7768
I2348325
aI15526
asS'3397'
p7769
(lp7770
I5555226
aI2422
asS'3109'
p7771
(lp7772
I2097183
aI629
asS'4019'
p7773
(lp7774
I17119849
aI2217
asS'4018'
p7775
(lp7776
I17119018
aI831
asS'4013'
p7777
(lp7778
I17001796
aI23019
asS'3783'
p7779
(lp7780
I12900224
aI33633
asS'4011'
p7781
(lp7782
I16979376
aI20944
asS'4010'
p7783
(lp7784
I16949782
aI29594
asS'4017'
p7785
(lp7786
I17095050
aI23968
asS'4016'
p7787
(lp7788
I17082264
aI12786
asS'4015'
p7789
(lp7790
I17055074
aI27190
asS'3396'
p7791
(lp7792
I5551911
aI3315
asS'357'
p7793
(lp7794
I111821
aI176
asS'356'
p7795
(lp7796
I111674
aI147
asS'355'
p7797
(lp7798
I111505
aI169
asS'354'
p7799
(lp7800
I111288
aI217
asS'353'
p7801
(lp7802
I111121
aI167
asS'352'
p7803
(lp7804
I110957
aI164
asS'351'
p7805
(lp7806
I110770
aI187
asS'350'
p7807
(lp7808
I110577
aI193
asS'3984'
p7809
(lp7810
I16427317
aI12129
asS'3985'
p7811
(lp7812
I16439446
aI35830
asS'3986'
p7813
(lp7814
I16475276
aI30258
asS'3987'
p7815
(lp7816
I16505534
aI30499
asS'3980'
p7817
(lp7818
I16332453
aI18622
asS'3981'
p7819
(lp7820
I16351075
aI22501
asS'359'
p7821
(lp7822
I112161
aI141
asS'358'
p7823
(lp7824
I111997
aI164
asS'3107'
p7825
(lp7826
I2096000
aI669
asS'3612'
p7827
(lp7828
I9748816
aI1730
asS'3613'
p7829
(lp7830
I9750546
aI34342
asS'3614'
p7831
(lp7832
I9784888
aI15137
asS'2323'
p7833
(lp7834
I1375096
aI1004
asS'1447'
p7835
(lp7836
I626084
aI179
asS'2321'
p7837
(lp7838
I1373348
aI1141
asS'2320'
p7839
(lp7840
I1372110
aI1238
asS'2327'
p7841
(lp7842
I1379457
aI643
asS'2326'
p7843
(lp7844
I1378164
aI1293
asS'2325'
p7845
(lp7846
I1377065
aI1099
asS'1446'
p7847
(lp7848
I625895
aI189
asS'2329'
p7849
(lp7850
I1380372
aI791
asS'2328'
p7851
(lp7852
I1380100
aI272
asS'1445'
p7853
(lp7854
I625184
aI711
asS'289'
p7855
(lp7856
I90510
aI167
asS'288'
p7857
(lp7858
I89627
aI883
asS'1444'
p7859
(lp7860
I624719
aI465
asS'2830'
p7861
(lp7862
I1792598
aI210
asS'3619'
p7863
(lp7864
I9837773
aI36337
asS'281'
p7865
(lp7866
I86413
aI419
asS'280'
p7867
(lp7868
I86236
aI177
asS'283'
p7869
(lp7870
I87710
aI153
asS'282'
p7871
(lp7872
I86832
aI878
asS'285'
p7873
(lp7874
I89098
aI174
asS'284'
p7875
(lp7876
I87863
aI1235
asS'287'
p7877
(lp7878
I89448
aI179
asS'286'
p7879
(lp7880
I89272
aI176
asS'3760'
p7881
(lp7882
I12477947
aI8169
asS'3761'
p7883
(lp7884
I12486116
aI31737
asS'3762'
p7885
(lp7886
I12517853
aI26323
asS'3763'
p7887
(lp7888
I12544176
aI23686
asS'3764'
p7889
(lp7890
I12567862
aI10986
asS'1441'
p7891
(lp7892
I623086
aI807
asS'3766'
p7893
(lp7894
I12612506
aI10746
asS'3767'
p7895
(lp7896
I12623252
aI35006
asS'3768'
p7897
(lp7898
I12658258
aI23348
asS'3769'
p7899
(lp7900
I12681606
aI9377
asS'1116'
p7901
(lp7902
I400850
aI749
asS'263'
p7903
(lp7904
I79985
aI172
asS'262'
p7905
(lp7906
I79846
aI139
asS'261'
p7907
(lp7908
I79708
aI138
asS'260'
p7909
(lp7910
I79545
aI163
asS'267'
p7911
(lp7912
I81059
aI369
asS'266'
p7913
(lp7914
I80886
aI173
asS'265'
p7915
(lp7916
I80354
aI532
asS'264'
p7917
(lp7918
I80157
aI197
asS'269'
p7919
(lp7920
I81603
aI160
asS'268'
p7921
(lp7922
I81428
aI175
asS'1562'
p7923
(lp7924
I720828
aI168
asS'2499'
p7925
(lp7926
I1514625
aI2016
asS'2498'
p7927
(lp7928
I1513627
aI998
asS'1563'
p7929
(lp7930
I720996
aI379
asS'1980'
p7931
(lp7932
I1079586
aI435
asS'2491'
p7933
(lp7934
I1507419
aI655
asS'1564'
p7935
(lp7936
I721375
aI973
asS'2493'
p7937
(lp7938
I1508811
aI742
asS'2492'
p7939
(lp7940
I1508074
aI737
asS'2495'
p7941
(lp7942
I1510654
aI380
asS'2192'
p7943
(lp7944
I1256755
aI693
asS'2497'
p7945
(lp7946
I1512051
aI1576
asS'1565'
p7947
(lp7948
I722348
aI1623
asS'2193'
p7949
(lp7950
I1257448
aI721
asS'1566'
p7951
(lp7952
I723971
aI739
asS'2259'
p7953
(lp7954
I1320102
aI329
asS'2258'
p7955
(lp7956
I1319419
aI683
asS'2257'
p7957
(lp7958
I1318906
aI513
asS'2256'
p7959
(lp7960
I1318357
aI549
asS'2255'
p7961
(lp7962
I1318025
aI332
asS'1567'
p7963
(lp7964
I724710
aI552
asS'2253'
p7965
(lp7966
I1315576
aI1216
asS'2252'
p7967
(lp7968
I1313656
aI1920
asS'2251'
p7969
(lp7970
I1312108
aI1548
asS'2250'
p7971
(lp7972
I1311874
aI234
asS'2477'
p7973
(lp7974
I1493960
aI456
asS'2476'
p7975
(lp7976
I1493670
aI290
asS'988'
p7977
(lp7978
I334123
aI383
asS'989'
p7979
(lp7980
I334506
aI1458
asS'2473'
p7981
(lp7982
I1492830
aI235
asS'2472'
p7983
(lp7984
I1492596
aI234
asS'2471'
p7985
(lp7986
I1491345
aI1251
asS'2470'
p7987
(lp7988
I1489111
aI2234
asS'982'
p7989
(lp7990
I331632
aI670
asS'983'
p7991
(lp7992
I332302
aI204
asS'980'
p7993
(lp7994
I330523
aI444
asS'981'
p7995
(lp7996
I330967
aI665
asS'986'
p7997
(lp7998
I333248
aI283
asS'987'
p7999
(lp8000
I333531
aI592
asS'984'
p8001
(lp8002
I332506
aI605
asS'985'
p8003
(lp8004
I333111
aI137
asS'115'
p8005
(lp8006
I34381
aI153
asS'114'
p8007
(lp8008
I34214
aI167
asS'117'
p8009
(lp8010
I35154
aI193
asS'116'
p8011
(lp8012
I34534
aI620
asS'111'
p8013
(lp8014
I33216
aI647
asS'110'
p8015
(lp8016
I33069
aI147
asS'113'
p8017
(lp8018
I34052
aI162
asS'112'
p8019
(lp8020
I33863
aI189
asS'119'
p8021
(lp8022
I35508
aI154
asS'118'
p8023
(lp8024
I35347
aI161
asS'3432'
p8025
(lp8026
I6173447
aI5157
asS'2785'
p8027
(lp8028
I1755314
aI822
asS'2784'
p8029
(lp8030
I1754567
aI747
asS'2787'
p8031
(lp8032
I1757800
aI1097
asS'2786'
p8033
(lp8034
I1756136
aI1664
asS'2781'
p8035
(lp8036
I1753427
aI440
asS'2780'
p8037
(lp8038
I1752772
aI655
asS'2783'
p8039
(lp8040
I1754095
aI472
asS'2782'
p8041
(lp8042
I1753867
aI228
asS'2789'
p8043
(lp8044
I1759246
aI193
asS'2788'
p8045
(lp8046
I1758897
aI349
asS'1797'
p8047
(lp8048
I922796
aI258
asS'2079'
p8049
(lp8050
I1153110
aI189
asS'2078'
p8051
(lp8052
I1152313
aI797
asS'2073'
p8053
(lp8054
I1149923
aI292
asS'2072'
p8055
(lp8056
I1149644
aI279
asS'2071'
p8057
(lp8058
I1149315
aI329
asS'2070'
p8059
(lp8060
I1149125
aI190
asS'2077'
p8061
(lp8062
I1151885
aI428
asS'2076'
p8063
(lp8064
I1151327
aI558
asS'2075'
p8065
(lp8066
I1150924
aI403
asS'2074'
p8067
(lp8068
I1150215
aI709
asS'1796'
p8069
(lp8070
I922509
aI287
asS'3221'
p8071
(lp8072
I2514411
aI27062
asS'3508'
p8073
(lp8074
I7591062
aI23737
asS'3509'
p8075
(lp8076
I7614799
aI17172
asS'3500'
p8077
(lp8078
I7428292
aI10696
asS'3501'
p8079
(lp8080
I7438988
aI4190
asS'3502'
p8081
(lp8082
I7443178
aI32960
asS'3503'
p8083
(lp8084
I7476138
aI26636
asS'3504'
p8085
(lp8086
I7502774
aI6747
asS'3505'
p8087
(lp8088
I7509521
aI28612
asS'3506'
p8089
(lp8090
I7538133
aI21517
asS'3507'
p8091
(lp8092
I7559650
aI31412
asS'2671'
p8093
(lp8094
I1650503
aI275
asS'2670'
p8095
(lp8096
I1649764
aI739
asS'2673'
p8097
(lp8098
I1651095
aI538
asS'2672'
p8099
(lp8100
I1650778
aI317
asS'2675'
p8101
(lp8102
I1652977
aI212
asS'2674'
p8103
(lp8104
I1651633
aI1344
asS'2677'
p8105
(lp8106
I1653368
aI257
asS'2676'
p8107
(lp8108
I1653189
aI179
asS'2679'
p8109
(lp8110
I1653883
aI1712
asS'2678'
p8111
(lp8112
I1653625
aI258
asS'3220'
p8113
(lp8114
I2485155
aI29256
asS'2929'
p8115
(lp8116
I1901663
aI1618
asS'2928'
p8117
(lp8118
I1900036
aI1627
asS'4027'
p8119
(lp8120
I17235133
aI25371
asS'2921'
p8121
(lp8122
I1890805
aI1547
asS'2920'
p8123
(lp8124
I1889695
aI1110
asS'2923'
p8125
(lp8126
I1894088
aI1401
asS'2922'
p8127
(lp8128
I1892352
aI1736
asS'2925'
p8129
(lp8130
I1896870
aI1355
asS'2924'
p8131
(lp8132
I1895489
aI1381
asS'2927'
p8133
(lp8134
I1898909
aI1127
asS'2926'
p8135
(lp8136
I1898225
aI684
asS'3394'
p8137
(lp8138
I5508801
aI9162
asS'2907'
p8139
(lp8140
I1877610
aI863
asS'2906'
p8141
(lp8142
I1876471
aI1139
asS'1630'
p8143
(lp8144
I769367
aI910
asS'1631'
p8145
(lp8146
I770277
aI619
asS'1632'
p8147
(lp8148
I770896
aI821
asS'484'
p8149
(lp8150
I155407
aI158
asS'1634'
p8151
(lp8152
I772205
aI758
asS'1635'
p8153
(lp8154
I772963
aI520
asS'1636'
p8155
(lp8156
I773483
aI732
asS'1637'
p8157
(lp8158
I774215
aI929
asS'1638'
p8159
(lp8160
I775144
aI1022
asS'1639'
p8161
(lp8162
I776166
aI245
asS'3218'
p8163
(lp8164
I2437517
aI35059
asS'3219'
p8165
(lp8166
I2472576
aI12579
asS'1988'
p8167
(lp8168
I1082378
aI1015
asS'1989'
p8169
(lp8170
I1083393
aI1589
asS'3222'
p8171
(lp8172
I2541473
aI15998
asS'2909'
p8173
(lp8174
I1878848
aI271
asS'568'
p8175
(lp8176
I179380
aI165
asS'569'
p8177
(lp8178
I179545
aI152
asS'2817'
p8179
(lp8180
I1779559
aI1141
asS'2816'
p8181
(lp8182
I1778349
aI1210
asS'2811'
p8183
(lp8184
I1774474
aI974
asS'2810'
p8185
(lp8186
I1773187
aI1287
asS'2813'
p8187
(lp8188
I1776982
aI580
asS'2812'
p8189
(lp8190
I1775448
aI1534
asS'560'
p8191
(lp8192
I177117
aI636
asS'561'
p8193
(lp8194
I177753
aI744
asS'562'
p8195
(lp8196
I178497
aI142
asS'563'
p8197
(lp8198
I178639
aI151
asS'564'
p8199
(lp8200
I178790
aI138
asS'565'
p8201
(lp8202
I178928
aI138
asS'566'
p8203
(lp8204
I179066
aI151
asS'567'
p8205
(lp8206
I179217
aI163
asS'3179'
p8207
(lp8208
I2166823
aI882
asS'3178'
p8209
(lp8210
I2166444
aI379
asS'3171'
p8211
(lp8212
I2161219
aI508
asS'3170'
p8213
(lp8214
I2160690
aI529
asS'3173'
p8215
(lp8216
I2162654
aI678
asS'3172'
p8217
(lp8218
I2161727
aI927
asS'3175'
p8219
(lp8220
I2163956
aI880
asS'3174'
p8221
(lp8222
I2163332
aI624
asS'3177'
p8223
(lp8224
I2165723
aI721
asS'3176'
p8225
(lp8226
I2164836
aI887
asS'1188'
p8227
(lp8228
I449594
aI1509
asS'1189'
p8229
(lp8230
I451103
aI193
asS'1186'
p8231
(lp8232
I448908
aI512
asS'1187'
p8233
(lp8234
I449420
aI174
asS'1184'
p8235
(lp8236
I447059
aI1213
asS'1185'
p8237
(lp8238
I448272
aI636
asS'1182'
p8239
(lp8240
I446026
aI575
asS'1183'
p8241
(lp8242
I446601
aI458
asS'1180'
p8243
(lp8244
I444519
aI908
asS'1181'
p8245
(lp8246
I445427
aI599
asS'726'
p8247
(lp8248
I241422
aI447
asS'727'
p8249
(lp8250
I241869
aI534
asS'724'
p8251
(lp8252
I239744
aI1510
asS'725'
p8253
(lp8254
I241254
aI168
asS'722'
p8255
(lp8256
I239466
aI149
asS'723'
p8257
(lp8258
I239615
aI129
asS'720'
p8259
(lp8260
I238582
aI379
asS'721'
p8261
(lp8262
I238961
aI505
asS'1744'
p8263
(lp8264
I869848
aI815
asS'1745'
p8265
(lp8266
I870663
aI1071
asS'1746'
p8267
(lp8268
I871734
aI889
asS'1747'
p8269
(lp8270
I872623
aI1966
asS'1740'
p8271
(lp8272
I865511
aI829
asS'1741'
p8273
(lp8274
I866340
aI1840
asS'728'
p8275
(lp8276
I242403
aI793
asS'729'
p8277
(lp8278
I243196
aI523
asS'1164'
p8279
(lp8280
I432710
aI597
asS'1165'
p8281
(lp8282
I433307
aI675
asS'1166'
p8283
(lp8284
I433982
aI1007
asS'1167'
p8285
(lp8286
I434989
aI549
asS'1160'
p8287
(lp8288
I429275
aI1006
asS'1161'
p8289
(lp8290
I430281
aI912
asS'1162'
p8291
(lp8292
I431193
aI1019
asS'1163'
p8293
(lp8294
I432212
aI498
asS'3309'
p8295
(lp8296
I4115496
aI18351
asS'1168'
p8297
(lp8298
I435538
aI386
asS'1169'
p8299
(lp8300
I435924
aI1128
asS'3092'
p8301
(lp8302
I2077876
aI1382
asS'3304'
p8303
(lp8304
I4033642
aI17833
asS'472'
p8305
(lp8306
I151069
aI173
asS'2913'
p8307
(lp8308
I1882743
aI1019
asS'3305'
p8309
(lp8310
I4051475
aI4686
asS'48'
p8311
(lp8312
I11403
aI1196
asS'49'
p8313
(lp8314
I12599
aI173
asS'46'
p8315
(lp8316
I10387
aI850
asS'47'
p8317
(lp8318
I11237
aI166
asS'44'
p8319
(lp8320
I9885
aI316
asS'45'
p8321
(lp8322
I10201
aI186
asS'42'
p8323
(lp8324
I9516
aI182
asS'43'
p8325
(lp8326
I9698
aI187
asS'40'
p8327
(lp8328
I8041
aI1296
asS'41'
p8329
(lp8330
I9337
aI179
asS'1568'
p8331
(lp8332
I725262
aI582
asS'1569'
p8333
(lp8334
I725844
aI380
asS'1298'
p8335
(lp8336
I515658
aI275
asS'1299'
p8337
(lp8338
I515933
aI186
asS'1292'
p8339
(lp8340
I512325
aI1009
asS'1293'
p8341
(lp8342
I513334
aI325
asS'1290'
p8343
(lp8344
I510857
aI1322
asS'1291'
p8345
(lp8346
I512179
aI146
asS'1296'
p8347
(lp8348
I515350
aI155
asS'1297'
p8349
(lp8350
I515505
aI153
asS'1294'
p8351
(lp8352
I513659
aI681
asS'1295'
p8353
(lp8354
I514340
aI1010
asS'1713'
p8355
(lp8356
I844600
aI930
asS'474'
p8357
(lp8358
I151394
aI250
asS'1712'
p8359
(lp8360
I844115
aI485
asS'475'
p8361
(lp8362
I151644
aI199
asS'1711'
p8363
(lp8364
I842788
aI1327
asS'2425'
p8365
(lp8366
I1461733
aI186
asS'1710'
p8367
(lp8368
I841790
aI998
asS'1717'
p8369
(lp8370
I846595
aI692
asS'1716'
p8371
(lp8372
I846095
aI500
asS'1715'
p8373
(lp8374
I845846
aI249
asS'1201'
p8375
(lp8376
I459790
aI205
asS'1714'
p8377
(lp8378
I845530
aI316
asS'1366'
p8379
(lp8380
I561565
aI2586
asS'473'
p8381
(lp8382
I151242
aI152
asS'1364'
p8383
(lp8384
I559541
aI482
asS'1365'
p8385
(lp8386
I560023
aI1542
asS'1362'
p8387
(lp8388
I557812
aI1197
asS'1363'
p8389
(lp8390
I559009
aI532
asS'1360'
p8391
(lp8392
I557445
aI180
asS'1361'
p8393
(lp8394
I557625
aI187
asS'3728'
p8395
(lp8396
I11843916
aI19040
asS'478'
p8397
(lp8398
I152187
aI143
asS'479'
p8399
(lp8400
I152330
aI574
asS'2916'
p8401
(lp8402
I1885453
aI1566
asS'3699'
p8403
(lp8404
I11329339
aI33543
asS'1368'
p8405
(lp8406
I564438
aI446
asS'1369'
p8407
(lp8408
I564884
aI496
as.