(dp0
S'42'
p1
(lp2
I6612
aI252
asS'48'
p3
(lp4
I7872
aI144
asS'43'
p5
(lp6
I6864
aI492
asS'60'
p7
(lp8
I9000
aI324
asS'61'
p9
(lp10
I9324
aI372
asS'62'
p11
(lp12
I9696
aI96
asS'63'
p13
(lp14
I9792
aI144
asS'64'
p15
(lp16
I9936
aI12
asS'49'
p17
(lp18
I8016
aI96
asS'24'
p19
(lp20
I3712
aI169
asS'25'
p21
(lp22
I3881
aI663
asS'26'
p23
(lp24
I4544
aI390
asS'27'
p25
(lp26
I4934
aI377
asS'20'
p27
(lp28
I3267
aI36
asS'21'
p29
(lp30
I3303
aI143
asS'22'
p31
(lp32
I3446
aI214
asS'23'
p33
(lp34
I3660
aI52
asS'44'
p35
(lp36
I7356
aI204
asS'45'
p37
(lp38
I7560
aI312
asS'28'
p39
(lp40
I5311
aI64
asS'29'
p41
(lp42
I5375
aI247
asS'40'
p43
(lp44
I6492
aI120
asS'1'
p45
(lp46
I0
aI65
asS'3'
p47
(lp48
I104
aI78
asS'2'
p49
(lp50
I65
aI39
asS'5'
p51
(lp52
I338
aI101
asS'4'
p53
(lp54
I182
aI156
asS'7'
p55
(lp56
I478
aI364
asS'6'
p57
(lp58
I439
aI39
asS'9'
p59
(lp60
I879
aI113
asS'8'
p61
(lp62
I842
aI37
asS'39'
p63
(lp64
I6348
aI144
asS'38'
p65
(lp66
I6156
aI192
asS'59'
p67
(lp68
I8484
aI516
asS'58'
p69
(lp70
I8124
aI360
asS'11'
p71
(lp72
I1447
aI247
asS'10'
p73
(lp74
I992
aI455
asS'13'
p75
(lp76
I1759
aI143
asS'12'
p77
(lp78
I1694
aI65
asS'15'
p79
(lp80
I2450
aI126
asS'14'
p81
(lp82
I1902
aI548
asS'17'
p83
(lp84
I2784
aI208
asS'16'
p85
(lp86
I2576
aI208
asS'19'
p87
(lp88
I3135
aI132
asS'18'
p89
(lp90
I2992
aI143
asS'31'
p91
(lp92
I5674
aI26
asS'30'
p93
(lp94
I5622
aI52
asS'37'
p95
(lp96
I6012
aI144
asS'36'
p97
(lp98
I5752
aI260
asS'33'
p99
(lp100
I5739
aI13
asS'32'
p101
(lp102
I5700
aI39
asS'57'
p103
(lp104
I8112
aI12
as.