(dp0
S'56'
p1
(lp2
I9277
aI135
asS'54'
p3
(lp4
I8933
aI219
asS'42'
p5
(lp6
I7093
aI161
asS'48'
p7
(lp8
I8123
aI234
asS'43'
p9
(lp10
I7254
aI142
asS'60'
p11
(lp12
I10186
aI262
asS'61'
p13
(lp14
I10448
aI233
asS'62'
p15
(lp16
I10681
aI131
asS'63'
p17
(lp18
I10812
aI103
asS'64'
p19
(lp20
I10915
aI144
asS'49'
p21
(lp22
I8357
aI99
asS'52'
p23
(lp24
I8621
aI67
asS'53'
p25
(lp26
I8688
aI245
asS'24'
p27
(lp28
I3194
aI61
asS'25'
p29
(lp30
I3255
aI87
asS'26'
p31
(lp32
I3342
aI70
asS'27'
p33
(lp34
I3412
aI67
asS'20'
p35
(lp36
I2639
aI101
asS'21'
p37
(lp38
I2740
aI141
asS'22'
p39
(lp40
I2881
aI216
asS'23'
p41
(lp42
I3097
aI97
asS'46'
p43
(lp44
I7742
aI174
asS'47'
p45
(lp46
I7916
aI207
asS'44'
p47
(lp48
I7396
aI84
asS'45'
p49
(lp50
I7480
aI262
asS'28'
p51
(lp52
I3479
aI204
asS'29'
p53
(lp54
I3683
aI151
asS'40'
p55
(lp56
I6434
aI272
asS'41'
p57
(lp58
I6706
aI387
asS'1'
p59
(lp60
I0
aI161
asS'3'
p61
(lp62
I301
aI142
asS'2'
p63
(lp64
I161
aI140
asS'5'
p65
(lp66
I821
aI234
asS'4'
p67
(lp68
I443
aI378
asS'7'
p69
(lp70
I1224
aI269
asS'6'
p71
(lp72
I1055
aI169
asS'9'
p73
(lp74
I1584
aI94
asS'8'
p75
(lp76
I1493
aI91
asS'51'
p77
(lp78
I8558
aI63
asS'39'
p79
(lp80
I6211
aI223
asS'38'
p81
(lp82
I5941
aI270
asS'59'
p83
(lp84
I9956
aI230
asS'58'
p85
(lp86
I9686
aI270
asS'11'
p87
(lp88
I1765
aI63
asS'10'
p89
(lp90
I1678
aI87
asS'13'
p91
(lp92
I1883
aI61
asS'12'
p93
(lp94
I1828
aI55
asS'15'
p95
(lp96
I2086
aI136
asS'14'
p97
(lp98
I1944
aI142
asS'17'
p99
(lp100
I2373
aI71
asS'16'
p101
(lp102
I2222
aI151
asS'19'
p103
(lp104
I2596
aI43
asS'18'
p105
(lp106
I2444
aI152
asS'31'
p107
(lp108
I3963
aI353
asS'30'
p109
(lp110
I3834
aI129
asS'37'
p111
(lp112
I5563
aI378
asS'36'
p113
(lp114
I5449
aI114
asS'35'
p115
(lp116
I5223
aI226
asS'34'
p117
(lp118
I5029
aI194
asS'33'
p119
(lp120
I4606
aI423
asS'55'
p121
(lp122
I9152
aI125
asS'32'
p123
(lp124
I4316
aI290
asS'57'
p125
(lp126
I9412
aI274
asS'50'
p127
(lp128
I8456
aI102
as.