(dp0
S'56'
p1
(lp2
I5318
aI95
asS'54'
p3
(lp4
I5142
aI116
asS'42'
p5
(lp6
I3994
aI68
asS'48'
p7
(lp8
I4644
aI172
asS'43'
p9
(lp10
I4062
aI106
asS'60'
p11
(lp12
I5938
aI208
asS'61'
p13
(lp14
I6146
aI165
asS'62'
p15
(lp16
I6311
aI73
asS'63'
p17
(lp18
I6384
aI55
asS'64'
p19
(lp20
I6439
aI35
asS'49'
p21
(lp22
I4816
aI61
asS'52'
p23
(lp24
I4959
aI40
asS'53'
p25
(lp26
I4999
aI143
asS'24'
p27
(lp28
I1783
aI28
asS'25'
p29
(lp30
I1811
aI43
asS'26'
p31
(lp32
I1854
aI46
asS'27'
p33
(lp34
I1900
aI43
asS'20'
p35
(lp36
I1487
aI55
asS'21'
p37
(lp38
I1542
aI76
asS'22'
p39
(lp40
I1618
aI122
asS'23'
p41
(lp42
I1740
aI43
asS'46'
p43
(lp44
I4377
aI129
asS'47'
p45
(lp46
I4506
aI138
asS'44'
p47
(lp48
I4168
aI58
asS'45'
p49
(lp50
I4226
aI151
asS'28'
p51
(lp52
I1943
aI103
asS'29'
p53
(lp54
I2046
aI90
asS'40'
p55
(lp56
I3577
aI175
asS'41'
p57
(lp58
I3752
aI242
asS'1'
p59
(lp60
I0
aI68
asS'3'
p61
(lp62
I119
aI67
asS'2'
p63
(lp64
I68
aI51
asS'5'
p65
(lp66
I410
aI163
asS'4'
p67
(lp68
I186
aI224
asS'7'
p69
(lp70
I666
aI169
asS'6'
p71
(lp72
I573
aI93
asS'9'
p73
(lp74
I891
aI66
asS'8'
p75
(lp76
I835
aI56
asS'51'
p77
(lp78
I4918
aI41
asS'39'
p79
(lp80
I3461
aI116
asS'38'
p81
(lp82
I3344
aI117
asS'59'
p83
(lp84
I5759
aI179
asS'58'
p85
(lp86
I5571
aI188
asS'11'
p87
(lp88
I986
aI31
asS'10'
p89
(lp90
I957
aI29
asS'13'
p91
(lp92
I1044
aI31
asS'12'
p93
(lp94
I1017
aI27
asS'15'
p95
(lp96
I1157
aI82
asS'14'
p97
(lp98
I1075
aI82
asS'17'
p99
(lp100
I1332
aI35
asS'16'
p101
(lp102
I1239
aI93
asS'19'
p103
(lp104
I1465
aI22
asS'18'
p105
(lp106
I1367
aI98
asS'31'
p107
(lp108
I2213
aI224
asS'30'
p109
(lp110
I2136
aI77
asS'37'
p111
(lp112
I3165
aI179
asS'36'
p113
(lp114
I3102
aI63
asS'35'
p115
(lp116
I2953
aI149
asS'34'
p117
(lp118
I2869
aI84
asS'33'
p119
(lp120
I2590
aI279
asS'55'
p121
(lp122
I5258
aI60
asS'32'
p123
(lp124
I2437
aI153
asS'57'
p125
(lp126
I5413
aI158
asS'50'
p127
(lp128
I4877
aI41
as.